MPLINK 4.40, Linker
Linker Map File - Created Tue Jun 18 11:05:23 2013

                                 Section Info
                  Section       Type    Address   Location Size(Bytes)
                ---------  ---------  ---------  ---------  ---------
               _entry_scn       code   0x000000    program   0x000006
      .romdata_MRF24J40.o    romdata   0x000006    program   0x000002
               highVector       code   0x000008    program   0x000006
       .code__user_putc.o       code   0x00000e    program   0x000002
           .code___init.o       code   0x000010    program   0x000002
      .idata_MRF24J40.o_i    romdata   0x000012    program   0x000003
          .idata_Demo.o_i    romdata   0x000015    program   0x000003
               lowhVector       code   0x000018    program   0x000006
           .idata_P2P.o_i    romdata   0x00001e    program   0x00000a
              securityKey    romdata   0x00002e    program   0x000010
                   .cinit    romdata   0x00003e    program   0x000026
              .code_P2P.o       code   0x000064    program   0x001598
         .code_MRF24J40.o       code   0x0015fc    program   0x000fe4
         .code_vfprintf.o       code   0x0025e0    program   0x000816
             .code_Demo.o       code   0x002df6    program   0x0005dc
              .code_NVM.o       code   0x0033d2    program   0x0001d0
                     PROG       code   0x0035a2    program   0x0001a2
        .code_TimeDelay.o       code   0x003744    program   0x00017c
       .code_LCD_ST7032.o       code   0x0038c0    program   0x000160
   .code_BSP_MiWiDemoBd.o       code   0x003a20    program   0x0000f6
       .code_MAC_EEProm.o       code   0x003b16    program   0x0000c6
               _cinit_scn       code   0x003bdc    program   0x00009e
                   STRING       code   0x003c7a    program   0x00009a
       .code_SymbolTime.o       code   0x003d14    program   0x00007c
          .code_sprintf.o       code   0x003d90    program   0x000072
             .code_putc.o       code   0x003e02    program   0x000066
             .code_MSPI.o       code   0x003e68    program   0x00005c
           .romdata_P2P.o    romdata   0x003ec4    program   0x00003c
                    CTYPE       code   0x003f00    program   0x000024
             .stringtable    romdata   0x003f24    program   0x000021
    .idata__user_putc.o_i    romdata   0x003f45    program   0x000000
          .idata_putc.o_i    romdata   0x003f45    program   0x000000
    .romdata__user_putc.o    romdata   0x003f45    program   0x000000
          .romdata_putc.o    romdata   0x003f45    program   0x000000
       .idata_MRF49XA.o_i    romdata   0x003f45    program   0x000000
       .romdata_MRF49XA.o    romdata   0x003f45    program   0x000000
       .idata_MRF89XA.o_i    romdata   0x003f45    program   0x000000
       .romdata_MRF89XA.o    romdata   0x003f45    program   0x000000
           .idata_NVM.o_i    romdata   0x003f45    program   0x000000
           .romdata_NVM.o    romdata   0x003f45    program   0x000000
      .idata_vfprintf.o_i    romdata   0x003f45    program   0x000000
        .idata___init.o_i    romdata   0x003f45    program   0x000000
        .romdata___init.o    romdata   0x003f45    program   0x000000
       .idata_sprintf.o_i    romdata   0x003f45    program   0x000000
       .romdata_sprintf.o    romdata   0x003f45    program   0x000000
       .idata_c018i_e.o_i    romdata   0x003f45    program   0x000000
       .romdata_c018i_e.o    romdata   0x003f45    program   0x000000
          .romdata_Demo.o    romdata   0x003f45    program   0x000000
.idata_BSP_MiWiDemoBd.o_i    romdata   0x003f45    program   0x000000
.romdata_BSP_MiWiDemoBd.o    romdata   0x003f45    program   0x000000
    .idata_LCD_ST7032.o_i    romdata   0x003f45    program   0x000000
    .romdata_LCD_ST7032.o    romdata   0x003f45    program   0x000000
    .idata_MAC_EEProm.o_i    romdata   0x003f45    program   0x000000
    .romdata_MAC_EEProm.o    romdata   0x003f45    program   0x000000
     .idata_TimeDelay.o_i    romdata   0x003f45    program   0x000000
     .romdata_TimeDelay.o    romdata   0x003f45    program   0x000000
          .idata_MSPI.o_i    romdata   0x003f45    program   0x000000
          .romdata_MSPI.o    romdata   0x003f45    program   0x000000
    .idata_SymbolTime.o_i    romdata   0x003f45    program   0x000000
      .romdata_security.o    romdata   0x003f45    program   0x000000
      .idata_security.o_i    romdata   0x003f45    program   0x000000
           .romdata_crc.o    romdata   0x003f45    program   0x000000
           .idata_crc.o_i    romdata   0x003f45    program   0x000000
       .romdata_MiWiPRO.o    romdata   0x003f45    program   0x000000
       .idata_MiWiPRO.o_i    romdata   0x003f45    program   0x000000
    .romdata_SymbolTime.o    romdata   0x003f45    program   0x000000
          .romdata_MiWi.o    romdata   0x003f45    program   0x000000
          .idata_MiWi.o_i    romdata   0x003f45    program   0x000000
         .code_security.o       code   0x003f46    program   0x000000
          .code_c018i_e.o       code   0x003f46    program   0x000000
          .code_MRF89XA.o       code   0x003f46    program   0x000000
              .code_crc.o       code   0x003f46    program   0x000000
                    .code       code   0x003f46    program   0x000020
          .code_MiWiPRO.o       code   0x003f46    program   0x000000
          .code_MRF49XA.o       code   0x003f46    program   0x000000
             .code_MiWi.o       code   0x003f46    program   0x000000
                    STDIO       code   0x003f66    program   0x00001c
             _startup_scn       code   0x003f82    program   0x00001a
      .romdata_vfprintf.o    romdata   0x003f9c    program   0x000011
.config_fff8_BSP_MiWiDemoBd.o    romdata   0x00fff8    program   0x000001
.config_fff9_BSP_MiWiDemoBd.o    romdata   0x00fff9    program   0x000001
.config_fffa_BSP_MiWiDemoBd.o    romdata   0x00fffa    program   0x000001
.config_fffb_BSP_MiWiDemoBd.o    romdata   0x00fffb    program   0x000001
  .udata_BSP_MiWiDemoBd.o      udata   0x000000       data   0x00000a
             .idata_P2P.o      idata   0x00000a       data   0x00000a
                 .tmpdata      udata   0x000014       data   0x000008
        .idata_MRF24J40.o      idata   0x00001c       data   0x000003
            .idata_Demo.o      idata   0x00001f       data   0x000003
              MAC_RX_BUFF      udata   0x000060       data   0x00009c
                MATH_DATA      udata   0x0000fc       data   0x000004
            .udata_Demo.o      udata   0x000100       data   0x0000e4
             .udata_NVM.o      udata   0x0001e4       data   0x00000c
         .udata_c018i_e.o      udata   0x0001f0       data   0x00000a
              HighISR_tmp      udata   0x0001fa       data   0x000004
      .udata_SymbolTime.o      udata   0x0001fe       data   0x000002
          INDIRECT_BUFFER      udata   0x000200       data   0x000074
            BIGvariables1      udata   0x000274       data   0x000064
               TRX_BUFFER      udata   0x0002d8       data   0x000028
                   .stack      udata   0x000d00       data   0x000100
             .udata_P2P.o      udata   0x000e00       data   0x000084
      .udata_LCD_ST7032.o      udata   0x000e84       data   0x000021
        .udata_MRF24J40.o      udata   0x000ea5       data   0x00001a
         .udata_MRF49XA.o      udata   0x000ebf       data   0x000000
         .idata_MRF49XA.o      idata   0x000ebf       data   0x000000
         .udata_MRF89XA.o      udata   0x000ebf       data   0x000000
         .idata_MRF89XA.o      idata   0x000ebf       data   0x000000
      .idata__user_putc.o      idata   0x000ebf       data   0x000000
      .udata__user_putc.o      udata   0x000ebf       data   0x000000
            .idata_putc.o      idata   0x000ebf       data   0x000000
            .udata_putc.o      udata   0x000ebf       data   0x000000
        .idata_vfprintf.o      idata   0x000ebf       data   0x000000
             .idata_NVM.o      idata   0x000ebf       data   0x000000
        .udata_vfprintf.o      udata   0x000ebf       data   0x000000
          .udata___init.o      udata   0x000ebf       data   0x000000
          .idata___init.o      idata   0x000ebf       data   0x000000
         .udata_sprintf.o      udata   0x000ebf       data   0x000000
         .idata_sprintf.o      idata   0x000ebf       data   0x000000
  .idata_BSP_MiWiDemoBd.o      idata   0x000ebf       data   0x000000
      .idata_LCD_ST7032.o      idata   0x000ebf       data   0x000000
      .udata_MAC_EEProm.o      udata   0x000ebf       data   0x000000
      .idata_MAC_EEProm.o      idata   0x000ebf       data   0x000000
       .udata_TimeDelay.o      udata   0x000ebf       data   0x000000
       .idata_TimeDelay.o      idata   0x000ebf       data   0x000000
            .udata_MSPI.o      udata   0x000ebf       data   0x000000
            .idata_MSPI.o      idata   0x000ebf       data   0x000000
      .idata_SymbolTime.o      idata   0x000ebf       data   0x000000
            .udata_MiWi.o      udata   0x000ebf       data   0x000000
            .idata_MiWi.o      idata   0x000ebf       data   0x000000
         .udata_MiWiPRO.o      udata   0x000ebf       data   0x000000
         .idata_c018i_e.o      idata   0x000ebf       data   0x000000
        .idata_security.o      idata   0x000ebf       data   0x000000
        .udata_security.o      udata   0x000ebf       data   0x000000
             .idata_crc.o      idata   0x000ebf       data   0x000000
             .udata_crc.o      udata   0x000ebf       data   0x000000
         .idata_MiWiPRO.o      idata   0x000ebf       data   0x000000
              SFR_BANKED0      udata   0x000ec6       data   0x00000e
              SFR_BANKED1      udata   0x000ed7       data   0x000008
              SFR_BANKED2      udata   0x000ee7       data   0x000004
              SFR_BANKED3      udata   0x000eec       data   0x000003
              SFR_BANKED4      udata   0x000ef2       data   0x000002
              SFR_BANKED5      udata   0x000ef6       data   0x000002
              SFR_BANKED6      udata   0x000efb       data   0x000005
              SFR_BANKED7      udata   0x000f26       data   0x000014
              SFR_BANKED8      udata   0x000f3c       data   0x000007
              SFR_BANKED9      udata   0x000f48       data   0x000008
             SFR_BANKED10      udata   0x000f52       data   0x00000e
            SFR_UNBANKED0      udata   0x000f60       data   0x0000a0



                              Program Memory Usage 
                               Start         End      
                           ---------   ---------      
                            0x000000    0x000027      
                            0x00002e    0x003f44      
                            0x003f46    0x003fac      
                            0x00fff8    0x00fffb      
            16298 out of 65538 program addresses used, program memory utilization is 24%



                              Symbols - Sorted by Name
                     Name    Address   Location    Storage File                     
                ---------  ---------  ---------  --------- ---------                
            AddConnection   0x000c82    program     extern /Users/sushma/Sushma Workspace/Projects/2013/MLA-Jun-Release-Pkg/Export-mla-jun/Microchip/WirelessProtocols/P2P/P2P.c
                BoardInit   0x003a20    program     extern /Users/sushma/Sushma Workspace/Projects/2013/MLA-Jun-Release-Pkg/Export-mla-jun/Combo/MiWi Protocol to WiFi Wireless Demo Kit/MiWi_Demo_Board/BSP_MiWiDemoBd.c
            ButtonPressed   0x003ab8    program     extern /Users/sushma/Sushma Workspace/Projects/2013/MLA-Jun-Release-Pkg/Export-mla-jun/Combo/MiWi Protocol to WiFi Wireless Demo Kit/MiWi_Demo_Board/BSP_MiWiDemoBd.c
                Delay10us   0x003744    program     extern /Users/sushma/Sushma Workspace/Projects/2013/MLA-Jun-Release-Pkg/Export-mla-jun/Microchip/Common/TimeDelay.c
                  DelayMs   0x003804    program     extern /Users/sushma/Sushma Workspace/Projects/2013/MLA-Jun-Release-Pkg/Export-mla-jun/Microchip/Common/TimeDelay.c
           DumpConnection   0x000c0c    program     extern /Users/sushma/Sushma Workspace/Projects/2013/MLA-Jun-Release-Pkg/Export-mla-jun/Microchip/WirelessProtocols/P2P/P2P.c
               EEPROMRead   0x003b16    program     extern /Users/sushma/Sushma Workspace/Projects/2013/MLA-Jun-Release-Pkg/Export-mla-jun/Combo/MiWi Protocol to WiFi Wireless Demo Kit/MiWi_Demo_Board/MAC_EEProm.c
                  HighISR   0x001fb6    program     extern /Users/sushma/Sushma Workspace/Projects/2013/MLA-Jun-Release-Pkg/Export-mla-jun/Microchip/Transceivers/MRF24J40/MRF24J40.c
               HighVector   0x000008    program     extern /Users/sushma/Sushma Workspace/Projects/2013/MLA-Jun-Release-Pkg/Export-mla-jun/Microchip/Transceivers/MRF24J40/MRF24J40.c
           IndirectPacket   0x000748    program     extern /Users/sushma/Sushma Workspace/Projects/2013/MLA-Jun-Release-Pkg/Export-mla-jun/Microchip/WirelessProtocols/P2P/P2P.c
             InitMRF24J40   0x001744    program     extern /Users/sushma/Sushma Workspace/Projects/2013/MLA-Jun-Release-Pkg/Export-mla-jun/Microchip/Transceivers/MRF24J40/MRF24J40.c
          InitSymbolTimer   0x003d14    program     extern /Users/sushma/Sushma Workspace/Projects/2013/MLA-Jun-Release-Pkg/Export-mla-jun/Microchip/WirelessProtocols/SymbolTime.c
          LCDBacklightOFF   0x00393c    program     extern /Users/sushma/Sushma Workspace/Projects/2013/MLA-Jun-Release-Pkg/Export-mla-jun/Combo/MiWi Protocol to WiFi Wireless Demo Kit/MiWi_Demo_Board/LCD_ST7032.c
           LCDBacklightON   0x003938    program     extern /Users/sushma/Sushma Workspace/Projects/2013/MLA-Jun-Release-Pkg/Export-mla-jun/Combo/MiWi Protocol to WiFi Wireless Demo Kit/MiWi_Demo_Board/LCD_ST7032.c
               LCDDisplay   0x00399c    program     extern /Users/sushma/Sushma Workspace/Projects/2013/MLA-Jun-Release-Pkg/Export-mla-jun/Combo/MiWi Protocol to WiFi Wireless Demo Kit/MiWi_Demo_Board/LCD_ST7032.c
                 LCDErase   0x003918    program     extern /Users/sushma/Sushma Workspace/Projects/2013/MLA-Jun-Release-Pkg/Export-mla-jun/Combo/MiWi Protocol to WiFi Wireless Demo Kit/MiWi_Demo_Board/LCD_ST7032.c
                  LCDInit   0x0038d4    program     extern /Users/sushma/Sushma Workspace/Projects/2013/MLA-Jun-Release-Pkg/Export-mla-jun/Combo/MiWi Protocol to WiFi Wireless Demo Kit/MiWi_Demo_Board/LCD_ST7032.c
                LCDUpdate   0x003940    program     extern /Users/sushma/Sushma Workspace/Projects/2013/MLA-Jun-Release-Pkg/Export-mla-jun/Combo/MiWi Protocol to WiFi Wireless Demo Kit/MiWi_Demo_Board/LCD_ST7032.c
             LCD_WriteCmd   0x0038c0    program     extern /Users/sushma/Sushma Workspace/Projects/2013/MLA-Jun-Release-Pkg/Export-mla-jun/Combo/MiWi Protocol to WiFi Wireless Demo Kit/MiWi_Demo_Board/LCD_ST7032.c
            LCD_WriteData   0x0038ca    program     extern /Users/sushma/Sushma Workspace/Projects/2013/MLA-Jun-Release-Pkg/Export-mla-jun/Combo/MiWi Protocol to WiFi Wireless Demo Kit/MiWi_Demo_Board/LCD_ST7032.c
                LowVector   0x000018    program     extern /Users/sushma/Sushma Workspace/Projects/2013/MLA-Jun-Release-Pkg/Export-mla-jun/Microchip/Transceivers/MRF24J40/MRF24J40.c
                 MacroNop   0x000064    program     extern /Users/sushma/Sushma Workspace/Projects/2013/MLA-Jun-Release-Pkg/Export-mla-jun/Microchip/WirelessProtocols/P2P/P2P.c
              MainDisplay   0x002df6    program     extern /Users/sushma/Sushma Workspace/Projects/2013/MLA-Jun-Release-Pkg/Export-mla-jun/Combo/MiWi Protocol to WiFi Wireless Demo Kit/MiWi_Demo_Board/Demo.c
    MiApp_BroadcastPacket   0x000956    program     extern /Users/sushma/Sushma Workspace/Projects/2013/MLA-Jun-Release-Pkg/Export-mla-jun/Microchip/WirelessProtocols/P2P/P2P.c
     MiApp_ConnectionMode   0x0010f8    program     extern /Users/sushma/Sushma Workspace/Projects/2013/MLA-Jun-Release-Pkg/Export-mla-jun/Microchip/WirelessProtocols/P2P/P2P.c
     MiApp_DiscardMessage   0x000bce    program     extern /Users/sushma/Sushma Workspace/Projects/2013/MLA-Jun-Release-Pkg/Export-mla-jun/Microchip/WirelessProtocols/P2P/P2P.c
MiApp_EstablishConnection   0x000ac4    program     extern /Users/sushma/Sushma Workspace/Projects/2013/MLA-Jun-Release-Pkg/Export-mla-jun/Microchip/WirelessProtocols/P2P/P2P.c
 MiApp_InitChannelHopping   0x001028    program     extern /Users/sushma/Sushma Workspace/Projects/2013/MLA-Jun-Release-Pkg/Export-mla-jun/Microchip/WirelessProtocols/P2P/P2P.c
   MiApp_MessageAvailable   0x000bfc    program     extern /Users/sushma/Sushma Workspace/Projects/2013/MLA-Jun-Release-Pkg/Export-mla-jun/Microchip/WirelessProtocols/P2P/P2P.c
     MiApp_NoiseDetection   0x000df4    program     extern /Users/sushma/Sushma Workspace/Projects/2013/MLA-Jun-Release-Pkg/Export-mla-jun/Microchip/WirelessProtocols/P2P/P2P.c
       MiApp_ProtocolInit   0x0005fc    program     extern /Users/sushma/Sushma Workspace/Projects/2013/MLA-Jun-Release-Pkg/Export-mla-jun/Microchip/WirelessProtocols/P2P/P2P.c
   MiApp_RemoveConnection   0x00107e    program     extern /Users/sushma/Sushma Workspace/Projects/2013/MLA-Jun-Release-Pkg/Export-mla-jun/Microchip/WirelessProtocols/P2P/P2P.c
   MiApp_ResyncConnection   0x000f3a    program     extern /Users/sushma/Sushma Workspace/Projects/2013/MLA-Jun-Release-Pkg/Export-mla-jun/Microchip/WirelessProtocols/P2P/P2P.c
   MiApp_SearchConnection   0x000d34    program     extern /Users/sushma/Sushma Workspace/Projects/2013/MLA-Jun-Release-Pkg/Export-mla-jun/Microchip/WirelessProtocols/P2P/P2P.c
         MiApp_SetChannel   0x000bd6    program     extern /Users/sushma/Sushma Workspace/Projects/2013/MLA-Jun-Release-Pkg/Export-mla-jun/Microchip/WirelessProtocols/P2P/P2P.c
    MiApp_StartConnection   0x000a64    program     extern /Users/sushma/Sushma Workspace/Projects/2013/MLA-Jun-Release-Pkg/Export-mla-jun/Microchip/WirelessProtocols/P2P/P2P.c
     MiApp_UnicastAddress   0x0009d4    program     extern /Users/sushma/Sushma Workspace/Projects/2013/MLA-Jun-Release-Pkg/Export-mla-jun/Microchip/WirelessProtocols/P2P/P2P.c
  MiApp_UnicastConnection   0x000996    program     extern /Users/sushma/Sushma Workspace/Projects/2013/MLA-Jun-Release-Pkg/Export-mla-jun/Microchip/WirelessProtocols/P2P/P2P.c
  MiMAC_ChannelAssessment   0x001e06    program     extern /Users/sushma/Sushma Workspace/Projects/2013/MLA-Jun-Release-Pkg/Export-mla-jun/Microchip/Transceivers/MRF24J40/MRF24J40.c
      MiMAC_DiscardPacket   0x001b08    program     extern /Users/sushma/Sushma Workspace/Projects/2013/MLA-Jun-Release-Pkg/Export-mla-jun/Microchip/Transceivers/MRF24J40/MRF24J40.c
               MiMAC_Init   0x001f3e    program     extern /Users/sushma/Sushma Workspace/Projects/2013/MLA-Jun-Release-Pkg/Export-mla-jun/Microchip/Transceivers/MRF24J40/MRF24J40.c
     MiMAC_ReceivedPacket   0x00189c    program     extern /Users/sushma/Sushma Workspace/Projects/2013/MLA-Jun-Release-Pkg/Export-mla-jun/Microchip/Transceivers/MRF24J40/MRF24J40.c
         MiMAC_SendPacket   0x001b18    program     extern /Users/sushma/Sushma Workspace/Projects/2013/MLA-Jun-Release-Pkg/Export-mla-jun/Microchip/Transceivers/MRF24J40/MRF24J40.c
      MiMAC_SetAltAddress   0x001edc    program     extern /Users/sushma/Sushma Workspace/Projects/2013/MLA-Jun-Release-Pkg/Export-mla-jun/Microchip/Transceivers/MRF24J40/MRF24J40.c
         MiMAC_SetChannel   0x001e2c    program     extern /Users/sushma/Sushma Workspace/Projects/2013/MLA-Jun-Release-Pkg/Export-mla-jun/Microchip/Transceivers/MRF24J40/MRF24J40.c
           MiMAC_SetPower   0x001e68    program     extern /Users/sushma/Sushma Workspace/Projects/2013/MLA-Jun-Release-Pkg/Export-mla-jun/Microchip/Transceivers/MRF24J40/MRF24J40.c
             MiWi_TickGet   0x003d28    program     extern /Users/sushma/Sushma Workspace/Projects/2013/MLA-Jun-Release-Pkg/Export-mla-jun/Microchip/WirelessProtocols/SymbolTime.c
                  NVMInit   0x00350e    program     extern /Users/sushma/Sushma Workspace/Projects/2013/MLA-Jun-Release-Pkg/Export-mla-jun/Combo/MiWi Protocol to WiFi Wireless Demo Kit/MiWi_Demo_Board/LocalFiles/NVM.c
                  NVMRead   0x0033d2    program     extern /Users/sushma/Sushma Workspace/Projects/2013/MLA-Jun-Release-Pkg/Export-mla-jun/Combo/MiWi Protocol to WiFi Wireless Demo Kit/MiWi_Demo_Board/LocalFiles/NVM.c
                 NVMWrite   0x003428    program     extern /Users/sushma/Sushma Workspace/Projects/2013/MLA-Jun-Release-Pkg/Export-mla-jun/Combo/MiWi Protocol to WiFi Wireless Demo Kit/MiWi_Demo_Board/LocalFiles/NVM.c
                 NVMalloc   0x0034c2    program     extern /Users/sushma/Sushma Workspace/Projects/2013/MLA-Jun-Release-Pkg/Export-mla-jun/Combo/MiWi Protocol to WiFi Wireless Demo Kit/MiWi_Demo_Board/LocalFiles/NVM.c
                 P2PTasks   0x000068    program     extern /Users/sushma/Sushma Workspace/Projects/2013/MLA-Jun-Release-Pkg/Export-mla-jun/Microchip/WirelessProtocols/P2P/P2P.c
        PHYGetLongRAMAddr   0x0016ca    program     extern /Users/sushma/Sushma Workspace/Projects/2013/MLA-Jun-Release-Pkg/Export-mla-jun/Microchip/Transceivers/MRF24J40/MRF24J40.c
       PHYGetShortRAMAddr   0x001694    program     extern /Users/sushma/Sushma Workspace/Projects/2013/MLA-Jun-Release-Pkg/Export-mla-jun/Microchip/Transceivers/MRF24J40/MRF24J40.c
        PHYSetLongRAMAddr   0x0015fc    program     extern /Users/sushma/Sushma Workspace/Projects/2013/MLA-Jun-Release-Pkg/Export-mla-jun/Microchip/Transceivers/MRF24J40/MRF24J40.c
       PHYSetShortRAMAddr   0x001668    program     extern /Users/sushma/Sushma Workspace/Projects/2013/MLA-Jun-Release-Pkg/Export-mla-jun/Microchip/Transceivers/MRF24J40/MRF24J40.c
                  RESTORE   0x003736    program     static C:\MCC18\v3_39\src\extended\math\div32u.asm
                  RESTORE   0x0035e4    program     static C:\MCC18\v3_39\src\extended\math\div08u.asm
              RETQUOTIENT   0x003726    program     static C:\MCC18\v3_39\src\extended\math\div32u.asm
         Read_MAC_Address   0x003b62    program     extern /Users/sushma/Sushma Workspace/Projects/2013/MLA-Jun-Release-Pkg/Export-mla-jun/Combo/MiWi Protocol to WiFi Wireless Demo Kit/MiWi_Demo_Board/MAC_EEProm.c
                 SETUPSTK   0x0036a0    program     static C:\MCC18\v3_39\src\extended\math\div32u.asm
                 SETUPSTK   0x0035a2    program     static C:\MCC18\v3_39\src\extended\math\div08u.asm
                   SPIGet   0x003e86    program     extern /Users/sushma/Sushma Workspace/Projects/2013/MLA-Jun-Release-Pkg/Export-mla-jun/Microchip/WirelessProtocols/MSPI.c
                  SPIGet2   0x003eac    program     extern /Users/sushma/Sushma Workspace/Projects/2013/MLA-Jun-Release-Pkg/Export-mla-jun/Microchip/WirelessProtocols/MSPI.c
                   SPIPut   0x003e68    program     extern /Users/sushma/Sushma Workspace/Projects/2013/MLA-Jun-Release-Pkg/Export-mla-jun/Microchip/WirelessProtocols/MSPI.c
                  SPIPut2   0x003e90    program     extern /Users/sushma/Sushma Workspace/Projects/2013/MLA-Jun-Release-Pkg/Export-mla-jun/Microchip/WirelessProtocols/MSPI.c
                 ScanTime   0x003ec4    program     extern /Users/sushma/Sushma Workspace/Projects/2013/MLA-Jun-Release-Pkg/Export-mla-jun/Microchip/WirelessProtocols/P2P/P2P.c
               SendPacket   0x0008a4    program     extern /Users/sushma/Sushma Workspace/Projects/2013/MLA-Jun-Release-Pkg/Export-mla-jun/Microchip/WirelessProtocols/P2P/P2P.c
      StartChannelHopping   0x000ee0    program     extern /Users/sushma/Sushma Workspace/Projects/2013/MLA-Jun-Release-Pkg/Export-mla-jun/Microchip/WirelessProtocols/P2P/P2P.c
     UserInterruptHandler   0x003b08    program     extern /Users/sushma/Sushma Workspace/Projects/2013/MLA-Jun-Release-Pkg/Export-mla-jun/Combo/MiWi Protocol to WiFi Wireless Demo Kit/MiWi_Demo_Board/BSP_MiWiDemoBd.c
              _2jContinue   0x003c9a    program     static C:\MCC18\v3_39\src\extended\stdclib\memset.asm
                   _2jEnd   0x003cfe    program     static C:\MCC18\v3_39\src\extended\stdclib\slenpgm.asm
                   _3jEnd   0x003ca4    program     static C:\MCC18\v3_39\src\extended\stdclib\memset.asm
         ___else_lbl00004   0x0037c8    program     static                          
         ___else_lbl00006   0x003754    program     static                          
         ___else_lbl00011   0x003884    program     static                          
           ___if_lbl00003   0x0037fc    program     static                          
           ___if_lbl00005   0x0037fc    program     static                          
           ___if_lbl00010   0x0038b8    program     static                          
       ___return_lbl00000   0x000066    program     static                          
       ___return_lbl00000   0x000004    program     static                          
       ___return_lbl00000   0x0037fc    program     static                          
       ___return_lbl00001   0x003f9a    program     static                          
       ___return_lbl00002   0x003c78    program     static                          
       ___return_lbl00007   0x0038b8    program     static                          
       ___return_lbl00218   0x00000c    program     static                          
       ___return_lbl00219   0x00001c    program     static                          
        ___while_lbl00001   0x0037c8    program     static                          
        ___while_lbl00002   0x0037fc    program     static                          
        ___while_lbl00008   0x003884    program     static                          
        ___while_lbl00009   0x0038b8    program     static                          
               __config_0   0x00fff8    program     static /Users/sushma/Sushma Workspace/Projects/2013/MLA-Jun-Release-Pkg/Export-mla-jun/Combo/MiWi Protocol to WiFi Wireless Demo Kit/MiWi_Demo_Board/BSP_MiWiDemoBd.c
               __config_1   0x00fff9    program     static /Users/sushma/Sushma Workspace/Projects/2013/MLA-Jun-Release-Pkg/Export-mla-jun/Combo/MiWi Protocol to WiFi Wireless Demo Kit/MiWi_Demo_Board/BSP_MiWiDemoBd.c
               __config_2   0x00fffa    program     static /Users/sushma/Sushma Workspace/Projects/2013/MLA-Jun-Release-Pkg/Export-mla-jun/Combo/MiWi Protocol to WiFi Wireless Demo Kit/MiWi_Demo_Board/BSP_MiWiDemoBd.c
               __config_3   0x00fffb    program     static /Users/sushma/Sushma Workspace/Projects/2013/MLA-Jun-Release-Pkg/Export-mla-jun/Combo/MiWi Protocol to WiFi Wireless Demo Kit/MiWi_Demo_Board/BSP_MiWiDemoBd.c
                 __div08u   0x0035ba    program     extern C:\MCC18\v3_39\src\extended\math\div08u.asm
                 __div32u   0x0036b8    program     extern C:\MCC18\v3_39\src\extended\math\div32u.asm
                   __init   0x000010    program     extern C:\MCC18\v3_39\src\extended\stdclib\__init.c
                 __mod08u   0x0035c0    program     extern C:\MCC18\v3_39\src\extended\math\div08u.asm
                 __mod32u   0x0036be    program     extern C:\MCC18\v3_39\src\extended\math\div32u.asm
                  __mul32   0x0035fe    program     extern C:\MCC18\v3_39\src\extended\math\mul32.asm
                   __pa_0   0x002ca2    program     static C:\MCC18\v3_39\src\extended\stdclib\vfprintf.c
                   __pa_0   0x0032ea    program     static /Users/sushma/Sushma Workspace/Projects/2013/MLA-Jun-Release-Pkg/Export-mla-jun/Combo/MiWi Protocol to WiFi Wireless Demo Kit/MiWi_Demo_Board/Demo.c
                   __pa_0   0x002354    program     static /Users/sushma/Sushma Workspace/Projects/2013/MLA-Jun-Release-Pkg/Export-mla-jun/Microchip/Transceivers/MRF24J40/MRF24J40.c
                   __pa_0   0x003eb6    program     static /Users/sushma/Sushma Workspace/Projects/2013/MLA-Jun-Release-Pkg/Export-mla-jun/Microchip/WirelessProtocols/MSPI.c
                   __pa_0   0x003564    program     static /Users/sushma/Sushma Workspace/Projects/2013/MLA-Jun-Release-Pkg/Export-mla-jun/Combo/MiWi Protocol to WiFi Wireless Demo Kit/MiWi_Demo_Board/LocalFiles/NVM.c
                   __pa_0   0x001122    program     static /Users/sushma/Sushma Workspace/Projects/2013/MLA-Jun-Release-Pkg/Export-mla-jun/Microchip/WirelessProtocols/P2P/P2P.c
                   __pa_0   0x003b0a    program     static /Users/sushma/Sushma Workspace/Projects/2013/MLA-Jun-Release-Pkg/Export-mla-jun/Combo/MiWi Protocol to WiFi Wireless Demo Kit/MiWi_Demo_Board/BSP_MiWiDemoBd.c
                   __pa_0   0x0039e0    program     static /Users/sushma/Sushma Workspace/Projects/2013/MLA-Jun-Release-Pkg/Export-mla-jun/Combo/MiWi Protocol to WiFi Wireless Demo Kit/MiWi_Demo_Board/LCD_ST7032.c
                   __pa_0   0x003bac    program     static /Users/sushma/Sushma Workspace/Projects/2013/MLA-Jun-Release-Pkg/Export-mla-jun/Combo/MiWi Protocol to WiFi Wireless Demo Kit/MiWi_Demo_Board/MAC_EEProm.c
                   __pa_1   0x00235a    program     static /Users/sushma/Sushma Workspace/Projects/2013/MLA-Jun-Release-Pkg/Export-mla-jun/Microchip/Transceivers/MRF24J40/MRF24J40.c
                   __pa_1   0x00112a    program     static /Users/sushma/Sushma Workspace/Projects/2013/MLA-Jun-Release-Pkg/Export-mla-jun/Microchip/WirelessProtocols/P2P/P2P.c
                   __pa_1   0x003570    program     static /Users/sushma/Sushma Workspace/Projects/2013/MLA-Jun-Release-Pkg/Export-mla-jun/Combo/MiWi Protocol to WiFi Wireless Demo Kit/MiWi_Demo_Board/LocalFiles/NVM.c
                   __pa_1   0x0032fe    program     static /Users/sushma/Sushma Workspace/Projects/2013/MLA-Jun-Release-Pkg/Export-mla-jun/Combo/MiWi Protocol to WiFi Wireless Demo Kit/MiWi_Demo_Board/Demo.c
                   __pa_1   0x002cb0    program     static C:\MCC18\v3_39\src\extended\stdclib\vfprintf.c
                   __pa_1   0x0039e8    program     static /Users/sushma/Sushma Workspace/Projects/2013/MLA-Jun-Release-Pkg/Export-mla-jun/Combo/MiWi Protocol to WiFi Wireless Demo Kit/MiWi_Demo_Board/LCD_ST7032.c
                   __pa_1   0x003bcc    program     static /Users/sushma/Sushma Workspace/Projects/2013/MLA-Jun-Release-Pkg/Export-mla-jun/Combo/MiWi Protocol to WiFi Wireless Demo Kit/MiWi_Demo_Board/MAC_EEProm.c
                  __pa_10   0x00339c    program     static /Users/sushma/Sushma Workspace/Projects/2013/MLA-Jun-Release-Pkg/Export-mla-jun/Combo/MiWi Protocol to WiFi Wireless Demo Kit/MiWi_Demo_Board/Demo.c
                  __pa_10   0x0023c4    program     static /Users/sushma/Sushma Workspace/Projects/2013/MLA-Jun-Release-Pkg/Export-mla-jun/Microchip/Transceivers/MRF24J40/MRF24J40.c
                  __pa_10   0x0011a2    program     static /Users/sushma/Sushma Workspace/Projects/2013/MLA-Jun-Release-Pkg/Export-mla-jun/Microchip/WirelessProtocols/P2P/P2P.c
                  __pa_10   0x002d3e    program     static C:\MCC18\v3_39\src\extended\stdclib\vfprintf.c
                  __pa_11   0x002d4e    program     static C:\MCC18\v3_39\src\extended\stdclib\vfprintf.c
                  __pa_11   0x0023d0    program     static /Users/sushma/Sushma Workspace/Projects/2013/MLA-Jun-Release-Pkg/Export-mla-jun/Microchip/Transceivers/MRF24J40/MRF24J40.c
                  __pa_11   0x0033a8    program     static /Users/sushma/Sushma Workspace/Projects/2013/MLA-Jun-Release-Pkg/Export-mla-jun/Combo/MiWi Protocol to WiFi Wireless Demo Kit/MiWi_Demo_Board/Demo.c
                  __pa_11   0x0011b0    program     static /Users/sushma/Sushma Workspace/Projects/2013/MLA-Jun-Release-Pkg/Export-mla-jun/Microchip/WirelessProtocols/P2P/P2P.c
                  __pa_12   0x0023f0    program     static /Users/sushma/Sushma Workspace/Projects/2013/MLA-Jun-Release-Pkg/Export-mla-jun/Microchip/Transceivers/MRF24J40/MRF24J40.c
                  __pa_12   0x0011ba    program     static /Users/sushma/Sushma Workspace/Projects/2013/MLA-Jun-Release-Pkg/Export-mla-jun/Microchip/WirelessProtocols/P2P/P2P.c
                  __pa_12   0x0033ae    program     static /Users/sushma/Sushma Workspace/Projects/2013/MLA-Jun-Release-Pkg/Export-mla-jun/Combo/MiWi Protocol to WiFi Wireless Demo Kit/MiWi_Demo_Board/Demo.c
                  __pa_12   0x002d5e    program     static C:\MCC18\v3_39\src\extended\stdclib\vfprintf.c
                  __pa_13   0x002d6c    program     static C:\MCC18\v3_39\src\extended\stdclib\vfprintf.c
                  __pa_13   0x0011c8    program     static /Users/sushma/Sushma Workspace/Projects/2013/MLA-Jun-Release-Pkg/Export-mla-jun/Microchip/WirelessProtocols/P2P/P2P.c
                  __pa_13   0x0033b4    program     static /Users/sushma/Sushma Workspace/Projects/2013/MLA-Jun-Release-Pkg/Export-mla-jun/Combo/MiWi Protocol to WiFi Wireless Demo Kit/MiWi_Demo_Board/Demo.c
                  __pa_13   0x002400    program     static /Users/sushma/Sushma Workspace/Projects/2013/MLA-Jun-Release-Pkg/Export-mla-jun/Microchip/Transceivers/MRF24J40/MRF24J40.c
                  __pa_14   0x0033c0    program     static /Users/sushma/Sushma Workspace/Projects/2013/MLA-Jun-Release-Pkg/Export-mla-jun/Combo/MiWi Protocol to WiFi Wireless Demo Kit/MiWi_Demo_Board/Demo.c
                  __pa_14   0x002408    program     static /Users/sushma/Sushma Workspace/Projects/2013/MLA-Jun-Release-Pkg/Export-mla-jun/Microchip/Transceivers/MRF24J40/MRF24J40.c
                  __pa_14   0x002d8a    program     static C:\MCC18\v3_39\src\extended\stdclib\vfprintf.c
                  __pa_14   0x0011ea    program     static /Users/sushma/Sushma Workspace/Projects/2013/MLA-Jun-Release-Pkg/Export-mla-jun/Microchip/WirelessProtocols/P2P/P2P.c
                  __pa_15   0x002422    program     static /Users/sushma/Sushma Workspace/Projects/2013/MLA-Jun-Release-Pkg/Export-mla-jun/Microchip/Transceivers/MRF24J40/MRF24J40.c
                  __pa_15   0x0011f0    program     static /Users/sushma/Sushma Workspace/Projects/2013/MLA-Jun-Release-Pkg/Export-mla-jun/Microchip/WirelessProtocols/P2P/P2P.c
                  __pa_15   0x0033ca    program     static /Users/sushma/Sushma Workspace/Projects/2013/MLA-Jun-Release-Pkg/Export-mla-jun/Combo/MiWi Protocol to WiFi Wireless Demo Kit/MiWi_Demo_Board/Demo.c
                  __pa_15   0x002d94    program     static C:\MCC18\v3_39\src\extended\stdclib\vfprintf.c
                  __pa_16   0x00242a    program     static /Users/sushma/Sushma Workspace/Projects/2013/MLA-Jun-Release-Pkg/Export-mla-jun/Microchip/Transceivers/MRF24J40/MRF24J40.c
                  __pa_16   0x002d9a    program     static C:\MCC18\v3_39\src\extended\stdclib\vfprintf.c
                  __pa_16   0x00120c    program     static /Users/sushma/Sushma Workspace/Projects/2013/MLA-Jun-Release-Pkg/Export-mla-jun/Microchip/WirelessProtocols/P2P/P2P.c
                  __pa_17   0x00243a    program     static /Users/sushma/Sushma Workspace/Projects/2013/MLA-Jun-Release-Pkg/Export-mla-jun/Microchip/Transceivers/MRF24J40/MRF24J40.c
                  __pa_17   0x002daa    program     static C:\MCC18\v3_39\src\extended\stdclib\vfprintf.c
                  __pa_17   0x00121a    program     static /Users/sushma/Sushma Workspace/Projects/2013/MLA-Jun-Release-Pkg/Export-mla-jun/Microchip/WirelessProtocols/P2P/P2P.c
                  __pa_18   0x001246    program     static /Users/sushma/Sushma Workspace/Projects/2013/MLA-Jun-Release-Pkg/Export-mla-jun/Microchip/WirelessProtocols/P2P/P2P.c
                  __pa_18   0x002450    program     static /Users/sushma/Sushma Workspace/Projects/2013/MLA-Jun-Release-Pkg/Export-mla-jun/Microchip/Transceivers/MRF24J40/MRF24J40.c
                  __pa_18   0x002db6    program     static C:\MCC18\v3_39\src\extended\stdclib\vfprintf.c
                  __pa_19   0x00125e    program     static /Users/sushma/Sushma Workspace/Projects/2013/MLA-Jun-Release-Pkg/Export-mla-jun/Microchip/WirelessProtocols/P2P/P2P.c
                  __pa_19   0x002dc4    program     static C:\MCC18\v3_39\src\extended\stdclib\vfprintf.c
                  __pa_19   0x00245a    program     static /Users/sushma/Sushma Workspace/Projects/2013/MLA-Jun-Release-Pkg/Export-mla-jun/Microchip/Transceivers/MRF24J40/MRF24J40.c
                   __pa_2   0x002366    program     static /Users/sushma/Sushma Workspace/Projects/2013/MLA-Jun-Release-Pkg/Export-mla-jun/Microchip/Transceivers/MRF24J40/MRF24J40.c
                   __pa_2   0x0039f4    program     static /Users/sushma/Sushma Workspace/Projects/2013/MLA-Jun-Release-Pkg/Export-mla-jun/Combo/MiWi Protocol to WiFi Wireless Demo Kit/MiWi_Demo_Board/LCD_ST7032.c
                   __pa_2   0x003304    program     static /Users/sushma/Sushma Workspace/Projects/2013/MLA-Jun-Release-Pkg/Export-mla-jun/Combo/MiWi Protocol to WiFi Wireless Demo Kit/MiWi_Demo_Board/Demo.c
                   __pa_2   0x002cc0    program     static C:\MCC18\v3_39\src\extended\stdclib\vfprintf.c
                   __pa_2   0x001138    program     static /Users/sushma/Sushma Workspace/Projects/2013/MLA-Jun-Release-Pkg/Export-mla-jun/Microchip/WirelessProtocols/P2P/P2P.c
                   __pa_2   0x00357e    program     static /Users/sushma/Sushma Workspace/Projects/2013/MLA-Jun-Release-Pkg/Export-mla-jun/Combo/MiWi Protocol to WiFi Wireless Demo Kit/MiWi_Demo_Board/LocalFiles/NVM.c
                  __pa_20   0x002dce    program     static C:\MCC18\v3_39\src\extended\stdclib\vfprintf.c
                  __pa_20   0x001276    program     static /Users/sushma/Sushma Workspace/Projects/2013/MLA-Jun-Release-Pkg/Export-mla-jun/Microchip/WirelessProtocols/P2P/P2P.c
                  __pa_20   0x002466    program     static /Users/sushma/Sushma Workspace/Projects/2013/MLA-Jun-Release-Pkg/Export-mla-jun/Microchip/Transceivers/MRF24J40/MRF24J40.c
                  __pa_21   0x002478    program     static /Users/sushma/Sushma Workspace/Projects/2013/MLA-Jun-Release-Pkg/Export-mla-jun/Microchip/Transceivers/MRF24J40/MRF24J40.c
                  __pa_21   0x00128e    program     static /Users/sushma/Sushma Workspace/Projects/2013/MLA-Jun-Release-Pkg/Export-mla-jun/Microchip/WirelessProtocols/P2P/P2P.c
                  __pa_21   0x002dd8    program     static C:\MCC18\v3_39\src\extended\stdclib\vfprintf.c
                  __pa_22   0x00248a    program     static /Users/sushma/Sushma Workspace/Projects/2013/MLA-Jun-Release-Pkg/Export-mla-jun/Microchip/Transceivers/MRF24J40/MRF24J40.c
                  __pa_22   0x0012a6    program     static /Users/sushma/Sushma Workspace/Projects/2013/MLA-Jun-Release-Pkg/Export-mla-jun/Microchip/WirelessProtocols/P2P/P2P.c
                  __pa_22   0x002de2    program     static C:\MCC18\v3_39\src\extended\stdclib\vfprintf.c
                  __pa_23   0x0012b0    program     static /Users/sushma/Sushma Workspace/Projects/2013/MLA-Jun-Release-Pkg/Export-mla-jun/Microchip/WirelessProtocols/P2P/P2P.c
                  __pa_23   0x002496    program     static /Users/sushma/Sushma Workspace/Projects/2013/MLA-Jun-Release-Pkg/Export-mla-jun/Microchip/Transceivers/MRF24J40/MRF24J40.c
                  __pa_23   0x002df0    program     static C:\MCC18\v3_39\src\extended\stdclib\vfprintf.c
                  __pa_24   0x0012b8    program     static /Users/sushma/Sushma Workspace/Projects/2013/MLA-Jun-Release-Pkg/Export-mla-jun/Microchip/WirelessProtocols/P2P/P2P.c
                  __pa_24   0x00249e    program     static /Users/sushma/Sushma Workspace/Projects/2013/MLA-Jun-Release-Pkg/Export-mla-jun/Microchip/Transceivers/MRF24J40/MRF24J40.c
                  __pa_25   0x0012c4    program     static /Users/sushma/Sushma Workspace/Projects/2013/MLA-Jun-Release-Pkg/Export-mla-jun/Microchip/WirelessProtocols/P2P/P2P.c
                  __pa_25   0x0024aa    program     static /Users/sushma/Sushma Workspace/Projects/2013/MLA-Jun-Release-Pkg/Export-mla-jun/Microchip/Transceivers/MRF24J40/MRF24J40.c
                  __pa_26   0x0012ca    program     static /Users/sushma/Sushma Workspace/Projects/2013/MLA-Jun-Release-Pkg/Export-mla-jun/Microchip/WirelessProtocols/P2P/P2P.c
                  __pa_26   0x0024b2    program     static /Users/sushma/Sushma Workspace/Projects/2013/MLA-Jun-Release-Pkg/Export-mla-jun/Microchip/Transceivers/MRF24J40/MRF24J40.c
                  __pa_27   0x0012e0    program     static /Users/sushma/Sushma Workspace/Projects/2013/MLA-Jun-Release-Pkg/Export-mla-jun/Microchip/WirelessProtocols/P2P/P2P.c
                  __pa_27   0x0024c0    program     static /Users/sushma/Sushma Workspace/Projects/2013/MLA-Jun-Release-Pkg/Export-mla-jun/Microchip/Transceivers/MRF24J40/MRF24J40.c
                  __pa_28   0x0012e8    program     static /Users/sushma/Sushma Workspace/Projects/2013/MLA-Jun-Release-Pkg/Export-mla-jun/Microchip/WirelessProtocols/P2P/P2P.c
                  __pa_28   0x0024ce    program     static /Users/sushma/Sushma Workspace/Projects/2013/MLA-Jun-Release-Pkg/Export-mla-jun/Microchip/Transceivers/MRF24J40/MRF24J40.c
                  __pa_29   0x0012f4    program     static /Users/sushma/Sushma Workspace/Projects/2013/MLA-Jun-Release-Pkg/Export-mla-jun/Microchip/WirelessProtocols/P2P/P2P.c
                  __pa_29   0x0024d6    program     static /Users/sushma/Sushma Workspace/Projects/2013/MLA-Jun-Release-Pkg/Export-mla-jun/Microchip/Transceivers/MRF24J40/MRF24J40.c
                   __pa_3   0x003588    program     static /Users/sushma/Sushma Workspace/Projects/2013/MLA-Jun-Release-Pkg/Export-mla-jun/Combo/MiWi Protocol to WiFi Wireless Demo Kit/MiWi_Demo_Board/LocalFiles/NVM.c
                   __pa_3   0x002ccc    program     static C:\MCC18\v3_39\src\extended\stdclib\vfprintf.c
                   __pa_3   0x002374    program     static /Users/sushma/Sushma Workspace/Projects/2013/MLA-Jun-Release-Pkg/Export-mla-jun/Microchip/Transceivers/MRF24J40/MRF24J40.c
                   __pa_3   0x00113e    program     static /Users/sushma/Sushma Workspace/Projects/2013/MLA-Jun-Release-Pkg/Export-mla-jun/Microchip/WirelessProtocols/P2P/P2P.c
                   __pa_3   0x003328    program     static /Users/sushma/Sushma Workspace/Projects/2013/MLA-Jun-Release-Pkg/Export-mla-jun/Combo/MiWi Protocol to WiFi Wireless Demo Kit/MiWi_Demo_Board/Demo.c
                   __pa_3   0x003a02    program     static /Users/sushma/Sushma Workspace/Projects/2013/MLA-Jun-Release-Pkg/Export-mla-jun/Combo/MiWi Protocol to WiFi Wireless Demo Kit/MiWi_Demo_Board/LCD_ST7032.c
                  __pa_30   0x001304    program     static /Users/sushma/Sushma Workspace/Projects/2013/MLA-Jun-Release-Pkg/Export-mla-jun/Microchip/WirelessProtocols/P2P/P2P.c
                  __pa_30   0x0024de    program     static /Users/sushma/Sushma Workspace/Projects/2013/MLA-Jun-Release-Pkg/Export-mla-jun/Microchip/Transceivers/MRF24J40/MRF24J40.c
                  __pa_31   0x0024ec    program     static /Users/sushma/Sushma Workspace/Projects/2013/MLA-Jun-Release-Pkg/Export-mla-jun/Microchip/Transceivers/MRF24J40/MRF24J40.c
                  __pa_31   0x00130c    program     static /Users/sushma/Sushma Workspace/Projects/2013/MLA-Jun-Release-Pkg/Export-mla-jun/Microchip/WirelessProtocols/P2P/P2P.c
                  __pa_32   0x0024fc    program     static /Users/sushma/Sushma Workspace/Projects/2013/MLA-Jun-Release-Pkg/Export-mla-jun/Microchip/Transceivers/MRF24J40/MRF24J40.c
                  __pa_32   0x001318    program     static /Users/sushma/Sushma Workspace/Projects/2013/MLA-Jun-Release-Pkg/Export-mla-jun/Microchip/WirelessProtocols/P2P/P2P.c
                  __pa_33   0x002508    program     static /Users/sushma/Sushma Workspace/Projects/2013/MLA-Jun-Release-Pkg/Export-mla-jun/Microchip/Transceivers/MRF24J40/MRF24J40.c
                  __pa_33   0x001326    program     static /Users/sushma/Sushma Workspace/Projects/2013/MLA-Jun-Release-Pkg/Export-mla-jun/Microchip/WirelessProtocols/P2P/P2P.c
                  __pa_34   0x00132c    program     static /Users/sushma/Sushma Workspace/Projects/2013/MLA-Jun-Release-Pkg/Export-mla-jun/Microchip/WirelessProtocols/P2P/P2P.c
                  __pa_34   0x002516    program     static /Users/sushma/Sushma Workspace/Projects/2013/MLA-Jun-Release-Pkg/Export-mla-jun/Microchip/Transceivers/MRF24J40/MRF24J40.c
                  __pa_35   0x002526    program     static /Users/sushma/Sushma Workspace/Projects/2013/MLA-Jun-Release-Pkg/Export-mla-jun/Microchip/Transceivers/MRF24J40/MRF24J40.c
                  __pa_35   0x00133a    program     static /Users/sushma/Sushma Workspace/Projects/2013/MLA-Jun-Release-Pkg/Export-mla-jun/Microchip/WirelessProtocols/P2P/P2P.c
                  __pa_36   0x00134c    program     static /Users/sushma/Sushma Workspace/Projects/2013/MLA-Jun-Release-Pkg/Export-mla-jun/Microchip/WirelessProtocols/P2P/P2P.c
                  __pa_36   0x002534    program     static /Users/sushma/Sushma Workspace/Projects/2013/MLA-Jun-Release-Pkg/Export-mla-jun/Microchip/Transceivers/MRF24J40/MRF24J40.c
                  __pa_37   0x001358    program     static /Users/sushma/Sushma Workspace/Projects/2013/MLA-Jun-Release-Pkg/Export-mla-jun/Microchip/WirelessProtocols/P2P/P2P.c
                  __pa_37   0x002540    program     static /Users/sushma/Sushma Workspace/Projects/2013/MLA-Jun-Release-Pkg/Export-mla-jun/Microchip/Transceivers/MRF24J40/MRF24J40.c
                  __pa_38   0x00254c    program     static /Users/sushma/Sushma Workspace/Projects/2013/MLA-Jun-Release-Pkg/Export-mla-jun/Microchip/Transceivers/MRF24J40/MRF24J40.c
                  __pa_38   0x001362    program     static /Users/sushma/Sushma Workspace/Projects/2013/MLA-Jun-Release-Pkg/Export-mla-jun/Microchip/WirelessProtocols/P2P/P2P.c
                  __pa_39   0x002556    program     static /Users/sushma/Sushma Workspace/Projects/2013/MLA-Jun-Release-Pkg/Export-mla-jun/Microchip/Transceivers/MRF24J40/MRF24J40.c
                  __pa_39   0x00136a    program     static /Users/sushma/Sushma Workspace/Projects/2013/MLA-Jun-Release-Pkg/Export-mla-jun/Microchip/WirelessProtocols/P2P/P2P.c
                   __pa_4   0x00237e    program     static /Users/sushma/Sushma Workspace/Projects/2013/MLA-Jun-Release-Pkg/Export-mla-jun/Microchip/Transceivers/MRF24J40/MRF24J40.c
                   __pa_4   0x003598    program     static /Users/sushma/Sushma Workspace/Projects/2013/MLA-Jun-Release-Pkg/Export-mla-jun/Combo/MiWi Protocol to WiFi Wireless Demo Kit/MiWi_Demo_Board/LocalFiles/NVM.c
                   __pa_4   0x00114e    program     static /Users/sushma/Sushma Workspace/Projects/2013/MLA-Jun-Release-Pkg/Export-mla-jun/Microchip/WirelessProtocols/P2P/P2P.c
                   __pa_4   0x003a16    program     static /Users/sushma/Sushma Workspace/Projects/2013/MLA-Jun-Release-Pkg/Export-mla-jun/Combo/MiWi Protocol to WiFi Wireless Demo Kit/MiWi_Demo_Board/LCD_ST7032.c
                   __pa_4   0x003342    program     static /Users/sushma/Sushma Workspace/Projects/2013/MLA-Jun-Release-Pkg/Export-mla-jun/Combo/MiWi Protocol to WiFi Wireless Demo Kit/MiWi_Demo_Board/Demo.c
                   __pa_4   0x002ce0    program     static C:\MCC18\v3_39\src\extended\stdclib\vfprintf.c
                  __pa_40   0x002560    program     static /Users/sushma/Sushma Workspace/Projects/2013/MLA-Jun-Release-Pkg/Export-mla-jun/Microchip/Transceivers/MRF24J40/MRF24J40.c
                  __pa_40   0x00137a    program     static /Users/sushma/Sushma Workspace/Projects/2013/MLA-Jun-Release-Pkg/Export-mla-jun/Microchip/WirelessProtocols/P2P/P2P.c
                  __pa_41   0x00256e    program     static /Users/sushma/Sushma Workspace/Projects/2013/MLA-Jun-Release-Pkg/Export-mla-jun/Microchip/Transceivers/MRF24J40/MRF24J40.c
                  __pa_41   0x001382    program     static /Users/sushma/Sushma Workspace/Projects/2013/MLA-Jun-Release-Pkg/Export-mla-jun/Microchip/WirelessProtocols/P2P/P2P.c
                  __pa_42   0x002576    program     static /Users/sushma/Sushma Workspace/Projects/2013/MLA-Jun-Release-Pkg/Export-mla-jun/Microchip/Transceivers/MRF24J40/MRF24J40.c
                  __pa_42   0x001392    program     static /Users/sushma/Sushma Workspace/Projects/2013/MLA-Jun-Release-Pkg/Export-mla-jun/Microchip/WirelessProtocols/P2P/P2P.c
                  __pa_43   0x00257e    program     static /Users/sushma/Sushma Workspace/Projects/2013/MLA-Jun-Release-Pkg/Export-mla-jun/Microchip/Transceivers/MRF24J40/MRF24J40.c
                  __pa_43   0x00139c    program     static /Users/sushma/Sushma Workspace/Projects/2013/MLA-Jun-Release-Pkg/Export-mla-jun/Microchip/WirelessProtocols/P2P/P2P.c
                  __pa_44   0x002584    program     static /Users/sushma/Sushma Workspace/Projects/2013/MLA-Jun-Release-Pkg/Export-mla-jun/Microchip/Transceivers/MRF24J40/MRF24J40.c
                  __pa_44   0x0013aa    program     static /Users/sushma/Sushma Workspace/Projects/2013/MLA-Jun-Release-Pkg/Export-mla-jun/Microchip/WirelessProtocols/P2P/P2P.c
                  __pa_45   0x00258c    program     static /Users/sushma/Sushma Workspace/Projects/2013/MLA-Jun-Release-Pkg/Export-mla-jun/Microchip/Transceivers/MRF24J40/MRF24J40.c
                  __pa_45   0x0013b8    program     static /Users/sushma/Sushma Workspace/Projects/2013/MLA-Jun-Release-Pkg/Export-mla-jun/Microchip/WirelessProtocols/P2P/P2P.c
                  __pa_46   0x002592    program     static /Users/sushma/Sushma Workspace/Projects/2013/MLA-Jun-Release-Pkg/Export-mla-jun/Microchip/Transceivers/MRF24J40/MRF24J40.c
                  __pa_46   0x0013c2    program     static /Users/sushma/Sushma Workspace/Projects/2013/MLA-Jun-Release-Pkg/Export-mla-jun/Microchip/WirelessProtocols/P2P/P2P.c
                  __pa_47   0x0013cc    program     static /Users/sushma/Sushma Workspace/Projects/2013/MLA-Jun-Release-Pkg/Export-mla-jun/Microchip/WirelessProtocols/P2P/P2P.c
                  __pa_47   0x00259a    program     static /Users/sushma/Sushma Workspace/Projects/2013/MLA-Jun-Release-Pkg/Export-mla-jun/Microchip/Transceivers/MRF24J40/MRF24J40.c
                  __pa_48   0x0013d4    program     static /Users/sushma/Sushma Workspace/Projects/2013/MLA-Jun-Release-Pkg/Export-mla-jun/Microchip/WirelessProtocols/P2P/P2P.c
                  __pa_48   0x0025a0    program     static /Users/sushma/Sushma Workspace/Projects/2013/MLA-Jun-Release-Pkg/Export-mla-jun/Microchip/Transceivers/MRF24J40/MRF24J40.c
                  __pa_49   0x0013dc    program     static /Users/sushma/Sushma Workspace/Projects/2013/MLA-Jun-Release-Pkg/Export-mla-jun/Microchip/WirelessProtocols/P2P/P2P.c
                  __pa_49   0x0025a8    program     static /Users/sushma/Sushma Workspace/Projects/2013/MLA-Jun-Release-Pkg/Export-mla-jun/Microchip/Transceivers/MRF24J40/MRF24J40.c
                   __pa_5   0x003358    program     static /Users/sushma/Sushma Workspace/Projects/2013/MLA-Jun-Release-Pkg/Export-mla-jun/Combo/MiWi Protocol to WiFi Wireless Demo Kit/MiWi_Demo_Board/Demo.c
                   __pa_5   0x00115e    program     static /Users/sushma/Sushma Workspace/Projects/2013/MLA-Jun-Release-Pkg/Export-mla-jun/Microchip/WirelessProtocols/P2P/P2P.c
                   __pa_5   0x002396    program     static /Users/sushma/Sushma Workspace/Projects/2013/MLA-Jun-Release-Pkg/Export-mla-jun/Microchip/Transceivers/MRF24J40/MRF24J40.c
                   __pa_5   0x002cf2    program     static C:\MCC18\v3_39\src\extended\stdclib\vfprintf.c
                  __pa_50   0x0025b2    program     static /Users/sushma/Sushma Workspace/Projects/2013/MLA-Jun-Release-Pkg/Export-mla-jun/Microchip/Transceivers/MRF24J40/MRF24J40.c
                  __pa_50   0x0013e4    program     static /Users/sushma/Sushma Workspace/Projects/2013/MLA-Jun-Release-Pkg/Export-mla-jun/Microchip/WirelessProtocols/P2P/P2P.c
                  __pa_51   0x0025b8    program     static /Users/sushma/Sushma Workspace/Projects/2013/MLA-Jun-Release-Pkg/Export-mla-jun/Microchip/Transceivers/MRF24J40/MRF24J40.c
                  __pa_51   0x0013ec    program     static /Users/sushma/Sushma Workspace/Projects/2013/MLA-Jun-Release-Pkg/Export-mla-jun/Microchip/WirelessProtocols/P2P/P2P.c
                  __pa_52   0x0025be    program     static /Users/sushma/Sushma Workspace/Projects/2013/MLA-Jun-Release-Pkg/Export-mla-jun/Microchip/Transceivers/MRF24J40/MRF24J40.c
                  __pa_52   0x0013f2    program     static /Users/sushma/Sushma Workspace/Projects/2013/MLA-Jun-Release-Pkg/Export-mla-jun/Microchip/WirelessProtocols/P2P/P2P.c
                  __pa_53   0x0025c6    program     static /Users/sushma/Sushma Workspace/Projects/2013/MLA-Jun-Release-Pkg/Export-mla-jun/Microchip/Transceivers/MRF24J40/MRF24J40.c
                  __pa_53   0x001400    program     static /Users/sushma/Sushma Workspace/Projects/2013/MLA-Jun-Release-Pkg/Export-mla-jun/Microchip/WirelessProtocols/P2P/P2P.c
                  __pa_54   0x0025d0    program     static /Users/sushma/Sushma Workspace/Projects/2013/MLA-Jun-Release-Pkg/Export-mla-jun/Microchip/Transceivers/MRF24J40/MRF24J40.c
                  __pa_54   0x001408    program     static /Users/sushma/Sushma Workspace/Projects/2013/MLA-Jun-Release-Pkg/Export-mla-jun/Microchip/WirelessProtocols/P2P/P2P.c
                  __pa_55   0x00141c    program     static /Users/sushma/Sushma Workspace/Projects/2013/MLA-Jun-Release-Pkg/Export-mla-jun/Microchip/WirelessProtocols/P2P/P2P.c
                  __pa_55   0x0025da    program     static /Users/sushma/Sushma Workspace/Projects/2013/MLA-Jun-Release-Pkg/Export-mla-jun/Microchip/Transceivers/MRF24J40/MRF24J40.c
                  __pa_56   0x001424    program     static /Users/sushma/Sushma Workspace/Projects/2013/MLA-Jun-Release-Pkg/Export-mla-jun/Microchip/WirelessProtocols/P2P/P2P.c
                  __pa_57   0x00142e    program     static /Users/sushma/Sushma Workspace/Projects/2013/MLA-Jun-Release-Pkg/Export-mla-jun/Microchip/WirelessProtocols/P2P/P2P.c
                  __pa_58   0x001436    program     static /Users/sushma/Sushma Workspace/Projects/2013/MLA-Jun-Release-Pkg/Export-mla-jun/Microchip/WirelessProtocols/P2P/P2P.c
                  __pa_59   0x00143e    program     static /Users/sushma/Sushma Workspace/Projects/2013/MLA-Jun-Release-Pkg/Export-mla-jun/Microchip/WirelessProtocols/P2P/P2P.c
                   __pa_6   0x003362    program     static /Users/sushma/Sushma Workspace/Projects/2013/MLA-Jun-Release-Pkg/Export-mla-jun/Combo/MiWi Protocol to WiFi Wireless Demo Kit/MiWi_Demo_Board/Demo.c
                   __pa_6   0x002d02    program     static C:\MCC18\v3_39\src\extended\stdclib\vfprintf.c
                   __pa_6   0x00239c    program     static /Users/sushma/Sushma Workspace/Projects/2013/MLA-Jun-Release-Pkg/Export-mla-jun/Microchip/Transceivers/MRF24J40/MRF24J40.c
                   __pa_6   0x00116c    program     static /Users/sushma/Sushma Workspace/Projects/2013/MLA-Jun-Release-Pkg/Export-mla-jun/Microchip/WirelessProtocols/P2P/P2P.c
                  __pa_60   0x001446    program     static /Users/sushma/Sushma Workspace/Projects/2013/MLA-Jun-Release-Pkg/Export-mla-jun/Microchip/WirelessProtocols/P2P/P2P.c
                  __pa_61   0x001460    program     static /Users/sushma/Sushma Workspace/Projects/2013/MLA-Jun-Release-Pkg/Export-mla-jun/Microchip/WirelessProtocols/P2P/P2P.c
                  __pa_62   0x00146e    program     static /Users/sushma/Sushma Workspace/Projects/2013/MLA-Jun-Release-Pkg/Export-mla-jun/Microchip/WirelessProtocols/P2P/P2P.c
                  __pa_63   0x001480    program     static /Users/sushma/Sushma Workspace/Projects/2013/MLA-Jun-Release-Pkg/Export-mla-jun/Microchip/WirelessProtocols/P2P/P2P.c
                  __pa_64   0x00148a    program     static /Users/sushma/Sushma Workspace/Projects/2013/MLA-Jun-Release-Pkg/Export-mla-jun/Microchip/WirelessProtocols/P2P/P2P.c
                  __pa_65   0x00149c    program     static /Users/sushma/Sushma Workspace/Projects/2013/MLA-Jun-Release-Pkg/Export-mla-jun/Microchip/WirelessProtocols/P2P/P2P.c
                  __pa_66   0x0014aa    program     static /Users/sushma/Sushma Workspace/Projects/2013/MLA-Jun-Release-Pkg/Export-mla-jun/Microchip/WirelessProtocols/P2P/P2P.c
                  __pa_67   0x0014bc    program     static /Users/sushma/Sushma Workspace/Projects/2013/MLA-Jun-Release-Pkg/Export-mla-jun/Microchip/WirelessProtocols/P2P/P2P.c
                  __pa_68   0x0014cc    program     static /Users/sushma/Sushma Workspace/Projects/2013/MLA-Jun-Release-Pkg/Export-mla-jun/Microchip/WirelessProtocols/P2P/P2P.c
                  __pa_69   0x0014d8    program     static /Users/sushma/Sushma Workspace/Projects/2013/MLA-Jun-Release-Pkg/Export-mla-jun/Microchip/WirelessProtocols/P2P/P2P.c
                   __pa_7   0x003370    program     static /Users/sushma/Sushma Workspace/Projects/2013/MLA-Jun-Release-Pkg/Export-mla-jun/Combo/MiWi Protocol to WiFi Wireless Demo Kit/MiWi_Demo_Board/Demo.c
                   __pa_7   0x002d14    program     static C:\MCC18\v3_39\src\extended\stdclib\vfprintf.c
                   __pa_7   0x0023a6    program     static /Users/sushma/Sushma Workspace/Projects/2013/MLA-Jun-Release-Pkg/Export-mla-jun/Microchip/Transceivers/MRF24J40/MRF24J40.c
                   __pa_7   0x001172    program     static /Users/sushma/Sushma Workspace/Projects/2013/MLA-Jun-Release-Pkg/Export-mla-jun/Microchip/WirelessProtocols/P2P/P2P.c
                  __pa_70   0x0014e6    program     static /Users/sushma/Sushma Workspace/Projects/2013/MLA-Jun-Release-Pkg/Export-mla-jun/Microchip/WirelessProtocols/P2P/P2P.c
                  __pa_71   0x0014f2    program     static /Users/sushma/Sushma Workspace/Projects/2013/MLA-Jun-Release-Pkg/Export-mla-jun/Microchip/WirelessProtocols/P2P/P2P.c
                  __pa_72   0x0014fa    program     static /Users/sushma/Sushma Workspace/Projects/2013/MLA-Jun-Release-Pkg/Export-mla-jun/Microchip/WirelessProtocols/P2P/P2P.c
                  __pa_73   0x001502    program     static /Users/sushma/Sushma Workspace/Projects/2013/MLA-Jun-Release-Pkg/Export-mla-jun/Microchip/WirelessProtocols/P2P/P2P.c
                  __pa_74   0x00150c    program     static /Users/sushma/Sushma Workspace/Projects/2013/MLA-Jun-Release-Pkg/Export-mla-jun/Microchip/WirelessProtocols/P2P/P2P.c
                  __pa_75   0x001512    program     static /Users/sushma/Sushma Workspace/Projects/2013/MLA-Jun-Release-Pkg/Export-mla-jun/Microchip/WirelessProtocols/P2P/P2P.c
                  __pa_76   0x001518    program     static /Users/sushma/Sushma Workspace/Projects/2013/MLA-Jun-Release-Pkg/Export-mla-jun/Microchip/WirelessProtocols/P2P/P2P.c
                  __pa_77   0x001524    program     static /Users/sushma/Sushma Workspace/Projects/2013/MLA-Jun-Release-Pkg/Export-mla-jun/Microchip/WirelessProtocols/P2P/P2P.c
                  __pa_78   0x00152a    program     static /Users/sushma/Sushma Workspace/Projects/2013/MLA-Jun-Release-Pkg/Export-mla-jun/Microchip/WirelessProtocols/P2P/P2P.c
                  __pa_79   0x001532    program     static /Users/sushma/Sushma Workspace/Projects/2013/MLA-Jun-Release-Pkg/Export-mla-jun/Microchip/WirelessProtocols/P2P/P2P.c
                   __pa_8   0x003382    program     static /Users/sushma/Sushma Workspace/Projects/2013/MLA-Jun-Release-Pkg/Export-mla-jun/Combo/MiWi Protocol to WiFi Wireless Demo Kit/MiWi_Demo_Board/Demo.c
                   __pa_8   0x001190    program     static /Users/sushma/Sushma Workspace/Projects/2013/MLA-Jun-Release-Pkg/Export-mla-jun/Microchip/WirelessProtocols/P2P/P2P.c
                   __pa_8   0x002d20    program     static C:\MCC18\v3_39\src\extended\stdclib\vfprintf.c
                   __pa_8   0x0023b2    program     static /Users/sushma/Sushma Workspace/Projects/2013/MLA-Jun-Release-Pkg/Export-mla-jun/Microchip/Transceivers/MRF24J40/MRF24J40.c
                  __pa_80   0x00153e    program     static /Users/sushma/Sushma Workspace/Projects/2013/MLA-Jun-Release-Pkg/Export-mla-jun/Microchip/WirelessProtocols/P2P/P2P.c
                  __pa_81   0x00154c    program     static /Users/sushma/Sushma Workspace/Projects/2013/MLA-Jun-Release-Pkg/Export-mla-jun/Microchip/WirelessProtocols/P2P/P2P.c
                  __pa_82   0x001558    program     static /Users/sushma/Sushma Workspace/Projects/2013/MLA-Jun-Release-Pkg/Export-mla-jun/Microchip/WirelessProtocols/P2P/P2P.c
                  __pa_83   0x001560    program     static /Users/sushma/Sushma Workspace/Projects/2013/MLA-Jun-Release-Pkg/Export-mla-jun/Microchip/WirelessProtocols/P2P/P2P.c
                  __pa_84   0x00156e    program     static /Users/sushma/Sushma Workspace/Projects/2013/MLA-Jun-Release-Pkg/Export-mla-jun/Microchip/WirelessProtocols/P2P/P2P.c
                  __pa_85   0x001576    program     static /Users/sushma/Sushma Workspace/Projects/2013/MLA-Jun-Release-Pkg/Export-mla-jun/Microchip/WirelessProtocols/P2P/P2P.c
                  __pa_86   0x00157e    program     static /Users/sushma/Sushma Workspace/Projects/2013/MLA-Jun-Release-Pkg/Export-mla-jun/Microchip/WirelessProtocols/P2P/P2P.c
                  __pa_87   0x001588    program     static /Users/sushma/Sushma Workspace/Projects/2013/MLA-Jun-Release-Pkg/Export-mla-jun/Microchip/WirelessProtocols/P2P/P2P.c
                  __pa_88   0x001590    program     static /Users/sushma/Sushma Workspace/Projects/2013/MLA-Jun-Release-Pkg/Export-mla-jun/Microchip/WirelessProtocols/P2P/P2P.c
                  __pa_89   0x00159a    program     static /Users/sushma/Sushma Workspace/Projects/2013/MLA-Jun-Release-Pkg/Export-mla-jun/Microchip/WirelessProtocols/P2P/P2P.c
                   __pa_9   0x0023bc    program     static /Users/sushma/Sushma Workspace/Projects/2013/MLA-Jun-Release-Pkg/Export-mla-jun/Microchip/Transceivers/MRF24J40/MRF24J40.c
                   __pa_9   0x00119c    program     static /Users/sushma/Sushma Workspace/Projects/2013/MLA-Jun-Release-Pkg/Export-mla-jun/Microchip/WirelessProtocols/P2P/P2P.c
                   __pa_9   0x002d32    program     static C:\MCC18\v3_39\src\extended\stdclib\vfprintf.c
                   __pa_9   0x003392    program     static /Users/sushma/Sushma Workspace/Projects/2013/MLA-Jun-Release-Pkg/Export-mla-jun/Combo/MiWi Protocol to WiFi Wireless Demo Kit/MiWi_Demo_Board/Demo.c
                  __pa_90   0x0015a2    program     static /Users/sushma/Sushma Workspace/Projects/2013/MLA-Jun-Release-Pkg/Export-mla-jun/Microchip/WirelessProtocols/P2P/P2P.c
                  __pa_91   0x0015ac    program     static /Users/sushma/Sushma Workspace/Projects/2013/MLA-Jun-Release-Pkg/Export-mla-jun/Microchip/WirelessProtocols/P2P/P2P.c
                  __pa_92   0x0015b2    program     static /Users/sushma/Sushma Workspace/Projects/2013/MLA-Jun-Release-Pkg/Export-mla-jun/Microchip/WirelessProtocols/P2P/P2P.c
                  __pa_93   0x0015bc    program     static /Users/sushma/Sushma Workspace/Projects/2013/MLA-Jun-Release-Pkg/Export-mla-jun/Microchip/WirelessProtocols/P2P/P2P.c
                  __pa_94   0x0015c6    program     static /Users/sushma/Sushma Workspace/Projects/2013/MLA-Jun-Release-Pkg/Export-mla-jun/Microchip/WirelessProtocols/P2P/P2P.c
                  __pa_95   0x0015d0    program     static /Users/sushma/Sushma Workspace/Projects/2013/MLA-Jun-Release-Pkg/Export-mla-jun/Microchip/WirelessProtocols/P2P/P2P.c
                  __pa_96   0x0015da    program     static /Users/sushma/Sushma Workspace/Projects/2013/MLA-Jun-Release-Pkg/Export-mla-jun/Microchip/WirelessProtocols/P2P/P2P.c
                  __pa_97   0x0015e4    program     static /Users/sushma/Sushma Workspace/Projects/2013/MLA-Jun-Release-Pkg/Export-mla-jun/Microchip/WirelessProtocols/P2P/P2P.c
                  __pa_98   0x0015ee    program     static /Users/sushma/Sushma Workspace/Projects/2013/MLA-Jun-Release-Pkg/Export-mla-jun/Microchip/WirelessProtocols/P2P/P2P.c
                  __pa_99   0x0015f4    program     static /Users/sushma/Sushma Workspace/Projects/2013/MLA-Jun-Release-Pkg/Export-mla-jun/Microchip/WirelessProtocols/P2P/P2P.c
               __string_0   0x003f34    program     static /Users/sushma/Sushma Workspace/Projects/2013/MLA-Jun-Release-Pkg/Export-mla-jun/Combo/MiWi Protocol to WiFi Wireless Demo Kit/MiWi_Demo_Board/Demo.c
               __string_1   0x003f24    program     static /Users/sushma/Sushma Workspace/Projects/2013/MLA-Jun-Release-Pkg/Export-mla-jun/Combo/MiWi Protocol to WiFi Wireless Demo Kit/MiWi_Demo_Board/Demo.c
              __tmplbl_28   0x002496    program     static                          
              __tmplbl_29   0x002496    program     static                          
              __tmplbl_30   0x0024ce    program     static                          
              __tmplbl_31   0x0024ce    program     static                          
              __tmplbl_60   0x0013cc    program     static                          
              __tmplbl_61   0x0013d4    program     static                          
              __tmplbl_62   0x0013cc    program     static                          
              __tmplbl_63   0x0013cc    program     static                          
            __zero_memory   0x003f46    program     extern C:\MCC18\v3_39\src\extended\proc\p18F46J50.asm
                _do_cinit   0x003bdc    program     extern C:\MCC18\v3_39\src\extended\startup\c018i_e.c
            _early08uexit   0x0035c4    program     extern C:\MCC18\v3_39\src\extended\math\div08u.asm
            _early32uexit   0x0036c2    program     extern C:\MCC18\v3_39\src\extended\math\div32u.asm
                   _entry   0x000000    program     extern C:\MCC18\v3_39\src\extended\startup\c018i_e.c
                   _false   0x003706    program     static C:\MCC18\v3_39\src\extended\math\div32u.asm
                 _startup   0x003f82    program     extern C:\MCC18\v3_39\src\extended\startup\c018i_e.c
              _usart_putc   0x003f66    program     extern C:\MCC18\v3_39\src\pmc_common\USART\_usartpc.asm
               _user_putc   0x00000e    program     extern C:\MCC18\v3_39\src\extended\stdclib\_user_putc.c
                compare_l   0x003f5c    program     static C:\MCC18\v3_39\src\extended\proc\p18F46J50.asm
                copy_loop   0x003c4e    program     static                          
            copy_one_byte   0x003c54    program     static                          
                divmod08u   0x0035c6    program     static C:\MCC18\v3_39\src\extended\math\div08u.asm
                divmod32u   0x0036c4    program     static C:\MCC18\v3_39\src\extended\math\div32u.asm
                     done   0x003c78    program     static                          
             done_copying   0x003c62    program     static                          
                  endloop   0x0035dc    program     static C:\MCC18\v3_39\src\extended\math\div08u.asm
            isSameAddress   0x000a24    program     extern /Users/sushma/Sushma Workspace/Projects/2013/MLA-Jun-Release-Pkg/Export-mla-jun/Microchip/WirelessProtocols/P2P/P2P.c
                  isdigit   0x003f00    program     extern C:\MCC18\v3_39\src\extended\stdclib\isdigit.asm
                     jEnd   0x003cc8    program     static C:\MCC18\v3_39\src\extended\stdclib\strlen.asm
                     jEnd   0x003d00    program     static C:\MCC18\v3_39\src\extended\stdclib\slenpgm.asm
                     jEnd   0x003cac    program     static C:\MCC18\v3_39\src\extended\stdclib\memset.asm
                    jLoop   0x003ce8    program     static C:\MCC18\v3_39\src\extended\stdclib\slenpgm.asm
                    jLoop   0x003cbe    program     static C:\MCC18\v3_39\src\extended\stdclib\strlen.asm
                    jLoop   0x003c8e    program     static C:\MCC18\v3_39\src\extended\stdclib\memset.asm
                   jMatch   0x003f20    program     static C:\MCC18\v3_39\src\extended\stdclib\isdigit.asm
                 jNoMatch   0x003f22    program     static C:\MCC18\v3_39\src\extended\stdclib\isdigit.asm
                     loop   0x003f76    program     static C:\MCC18\v3_39\src\pmc_common\USART\_usartpc.asm
                     loop   0x0036d2    program     static C:\MCC18\v3_39\src\extended\math\div32u.asm
                     loop   0x0035ce    program     static C:\MCC18\v3_39\src\extended\math\div08u.asm
                     loop   0x003f90    program     static                          
                   loop_h   0x003f54    program     static C:\MCC18\v3_39\src\extended\proc\p18F46J50.asm
                   loop_l   0x003f5e    program     static C:\MCC18\v3_39\src\extended\proc\p18F46J50.asm
                     main   0x002f40    program     extern /Users/sushma/Sushma Workspace/Projects/2013/MLA-Jun-Release-Pkg/Export-mla-jun/Combo/MiWi Protocol to WiFi Wireless Demo Kit/MiWi_Demo_Board/Demo.c
                   memset   0x003c7a    program     extern C:\MCC18\v3_39\src\extended\stdclib\memset.asm
      myKeySequenceNumber   0x000007    program     extern /Users/sushma/Sushma Workspace/Projects/2013/MLA-Jun-Release-Pkg/Export-mla-jun/Microchip/Transceivers/MRF24J40/MRF24J40.c
            mySecurityKey   0x00002e    program     extern /Users/sushma/Sushma Workspace/Projects/2013/MLA-Jun-Release-Pkg/Export-mla-jun/Microchip/Transceivers/MRF24J40/MRF24J40.c
          mySecurityLevel   0x000006    program     extern /Users/sushma/Sushma Workspace/Projects/2013/MLA-Jun-Release-Pkg/Export-mla-jun/Microchip/Transceivers/MRF24J40/MRF24J40.c
                     putc   0x003e02    program     extern C:\MCC18\v3_39\src\extended\stdclib\putc.c
                 s_digits   0x003f9c    program     static C:\MCC18\v3_39\src\extended\stdclib\vfprintf.c
            s_put_n_chars   0x0025e0    program     static C:\MCC18\v3_39\src\extended\stdclib\vfprintf.c
                  sprintf   0x003d90    program     extern C:\MCC18\v3_39\src\extended\stdclib\sprintf.c
                   strlen   0x003cae    program     extern C:\MCC18\v3_39\src\extended\stdclib\strlen.asm
                strlenpgm   0x003cca    program     extern C:\MCC18\v3_39\src\extended\stdclib\slenpgm.asm
                     test   0x003bf6    program     static                          
                 vfprintf   0x002612    program     extern C:\MCC18\v3_39\src\extended\stdclib\vfprintf.c
               zero_block   0x003f54    program     static C:\MCC18\v3_39\src\extended\proc\p18F46J50.asm
                   ADCON0   0x000fc2       data     extern C:\MCC18\v3_39\src\extended\proc\p18F46J50.asm
               ADCON0bits   0x000fc2       data     extern C:\MCC18\v3_39\src\extended\proc\p18F46J50.asm
                   ADCON1   0x000fc1       data     extern C:\MCC18\v3_39\src\extended\proc\p18F46J50.asm
               ADCON1bits   0x000fc1       data     extern C:\MCC18\v3_39\src\extended\proc\p18F46J50.asm
                    ADRES   0x000fc3       data     extern C:\MCC18\v3_39\src\extended\proc\p18F46J50.asm
                   ADRESH   0x000fc4       data     extern C:\MCC18\v3_39\src\extended\proc\p18F46J50.asm
                   ADRESL   0x000fc3       data     extern C:\MCC18\v3_39\src\extended\proc\p18F46J50.asm
                  ALRMCFG   0x000f91       data     extern C:\MCC18\v3_39\src\extended\proc\p18F46J50.asm
              ALRMCFGbits   0x000f91       data     extern C:\MCC18\v3_39\src\extended\proc\p18F46J50.asm
                  ALRMRPT   0x000f90       data     extern C:\MCC18\v3_39\src\extended\proc\p18F46J50.asm
              ALRMRPTbits   0x000f90       data     extern C:\MCC18\v3_39\src\extended\proc\p18F46J50.asm
                 ALRMVALH   0x000f8f       data     extern C:\MCC18\v3_39\src\extended\proc\p18F46J50.asm
                 ALRMVALL   0x000f8e       data     extern C:\MCC18\v3_39\src\extended\proc\p18F46J50.asm
                   ANCON0   0x000f48       data     extern C:\MCC18\v3_39\src\extended\proc\p18F46J50.asm
               ANCON0bits   0x000f48       data     extern C:\MCC18\v3_39\src\extended\proc\p18F46J50.asm
                   ANCON1   0x000f49       data     extern C:\MCC18\v3_39\src\extended\proc\p18F46J50.asm
               ANCON1bits   0x000f49       data     extern C:\MCC18\v3_39\src\extended\proc\p18F46J50.asm
    ActiveScanResultIndex   0x000e10       data     extern /Users/sushma/Sushma Workspace/Projects/2013/MLA-Jun-Release-Pkg/Export-mla-jun/Microchip/WirelessProtocols/P2P/P2P.c
        ActiveScanResults   0x000e11       data     extern /Users/sushma/Sushma Workspace/Projects/2013/MLA-Jun-Release-Pkg/Export-mla-jun/Microchip/WirelessProtocols/P2P/P2P.c
         AdditionalNodeID   0x000021       data     extern /Users/sushma/Sushma Workspace/Projects/2013/MLA-Jun-Release-Pkg/Export-mla-jun/Combo/MiWi Protocol to WiFi Wireless Demo Kit/MiWi_Demo_Board/Demo.c
                  BAUDCON   0x000f7e       data     extern C:\MCC18\v3_39\src\extended\proc\p18F46J50.asm
                 BAUDCON1   0x000f7e       data     extern C:\MCC18\v3_39\src\extended\proc\p18F46J50.asm
             BAUDCON1bits   0x000f7e       data     extern C:\MCC18\v3_39\src\extended\proc\p18F46J50.asm
                 BAUDCON2   0x000f7c       data     extern C:\MCC18\v3_39\src\extended\proc\p18F46J50.asm
             BAUDCON2bits   0x000f7c       data     extern C:\MCC18\v3_39\src\extended\proc\p18F46J50.asm
              BAUDCONbits   0x000f7e       data     extern C:\MCC18\v3_39\src\extended\proc\p18F46J50.asm
                  BAUDCTL   0x000f7e       data     extern C:\MCC18\v3_39\src\extended\proc\p18F46J50.asm
              BAUDCTLbits   0x000f7e       data     extern C:\MCC18\v3_39\src\extended\proc\p18F46J50.asm
                      BSR   0x000fe0       data     extern C:\MCC18\v3_39\src\extended\proc\p18F46J50.asm
                BankIndex   0x00001c       data     extern /Users/sushma/Sushma Workspace/Projects/2013/MLA-Jun-Release-Pkg/Export-mla-jun/Microchip/Transceivers/MRF24J40/MRF24J40.c
         BroadcastTracker   0x000100       data     extern /Users/sushma/Sushma Workspace/Projects/2013/MLA-Jun-Release-Pkg/Export-mla-jun/Combo/MiWi Protocol to WiFi Wireless Demo Kit/MiWi_Demo_Board/Demo.c
                  CCP1CON   0x000fba       data     extern C:\MCC18\v3_39\src\extended\proc\p18F46J50.asm
              CCP1CONbits   0x000fba       data     extern C:\MCC18\v3_39\src\extended\proc\p18F46J50.asm
                  CCP2CON   0x000fb4       data     extern C:\MCC18\v3_39\src\extended\proc\p18F46J50.asm
              CCP2CONbits   0x000fb4       data     extern C:\MCC18\v3_39\src\extended\proc\p18F46J50.asm
                    CCPR1   0x000fbb       data     extern C:\MCC18\v3_39\src\extended\proc\p18F46J50.asm
                   CCPR1H   0x000fbc       data     extern C:\MCC18\v3_39\src\extended\proc\p18F46J50.asm
                   CCPR1L   0x000fbb       data     extern C:\MCC18\v3_39\src\extended\proc\p18F46J50.asm
                    CCPR2   0x000fb5       data     extern C:\MCC18\v3_39\src\extended\proc\p18F46J50.asm
                   CCPR2H   0x000fb6       data     extern C:\MCC18\v3_39\src\extended\proc\p18F46J50.asm
                   CCPR2L   0x000fb5       data     extern C:\MCC18\v3_39\src\extended\proc\p18F46J50.asm
                   CM1CON   0x000fd2       data     extern C:\MCC18\v3_39\src\extended\proc\p18F46J50.asm
                  CM1CON1   0x000fd2       data     extern C:\MCC18\v3_39\src\extended\proc\p18F46J50.asm
              CM1CON1bits   0x000fd2       data     extern C:\MCC18\v3_39\src\extended\proc\p18F46J50.asm
               CM1CONbits   0x000fd2       data     extern C:\MCC18\v3_39\src\extended\proc\p18F46J50.asm
                   CM2CON   0x000fd1       data     extern C:\MCC18\v3_39\src\extended\proc\p18F46J50.asm
                  CM2CON1   0x000fd1       data     extern C:\MCC18\v3_39\src\extended\proc\p18F46J50.asm
              CM2CON1bits   0x000fd1       data     extern C:\MCC18\v3_39\src\extended\proc\p18F46J50.asm
               CM2CONbits   0x000fd1       data     extern C:\MCC18\v3_39\src\extended\proc\p18F46J50.asm
                   CMSTAT   0x000f70       data     extern C:\MCC18\v3_39\src\extended\proc\p18F46J50.asm
                 CMSTATUS   0x000f70       data     extern C:\MCC18\v3_39\src\extended\proc\p18F46J50.asm
             CMSTATUSbits   0x000f70       data     extern C:\MCC18\v3_39\src\extended\proc\p18F46J50.asm
               CMSTATbits   0x000f70       data     extern C:\MCC18\v3_39\src\extended\proc\p18F46J50.asm
                 CTMUCONH   0x000fb3       data     extern C:\MCC18\v3_39\src\extended\proc\p18F46J50.asm
             CTMUCONHbits   0x000fb3       data     extern C:\MCC18\v3_39\src\extended\proc\p18F46J50.asm
                 CTMUCONL   0x000fb2       data     extern C:\MCC18\v3_39\src\extended\proc\p18F46J50.asm
             CTMUCONLbits   0x000fb2       data     extern C:\MCC18\v3_39\src\extended\proc\p18F46J50.asm
                 CTMUICON   0x000fb1       data     extern C:\MCC18\v3_39\src\extended\proc\p18F46J50.asm
             CTMUICONbits   0x000fb1       data     extern C:\MCC18\v3_39\src\extended\proc\p18F46J50.asm
                   CVRCON   0x000f53       data     extern C:\MCC18\v3_39\src\extended\proc\p18F46J50.asm
               CVRCONbits   0x000f53       data     extern C:\MCC18\v3_39\src\extended\proc\p18F46J50.asm
                 ConnMode   0x000013       data     extern /Users/sushma/Sushma Workspace/Projects/2013/MLA-Jun-Release-Pkg/Export-mla-jun/Microchip/WirelessProtocols/P2P/P2P.c
          ConnectionTable   0x000274       data     extern /Users/sushma/Sushma Workspace/Projects/2013/MLA-Jun-Release-Pkg/Export-mla-jun/Microchip/WirelessProtocols/P2P/P2P.c
                   DMABCH   0x000f66       data     extern C:\MCC18\v3_39\src\extended\proc\p18F46J50.asm
               DMABCHbits   0x000f66       data     extern C:\MCC18\v3_39\src\extended\proc\p18F46J50.asm
                   DMABCL   0x000f67       data     extern C:\MCC18\v3_39\src\extended\proc\p18F46J50.asm
                  DMACON1   0x000f88       data     extern C:\MCC18\v3_39\src\extended\proc\p18F46J50.asm
              DMACON1bits   0x000f88       data     extern C:\MCC18\v3_39\src\extended\proc\p18F46J50.asm
                  DMACON2   0x000f86       data     extern C:\MCC18\v3_39\src\extended\proc\p18F46J50.asm
              DMACON2bits   0x000f86       data     extern C:\MCC18\v3_39\src\extended\proc\p18F46J50.asm
                   DSCONH   0x000f4d       data     extern C:\MCC18\v3_39\src\extended\proc\p18F46J50.asm
               DSCONHbits   0x000f4d       data     extern C:\MCC18\v3_39\src\extended\proc\p18F46J50.asm
                   DSCONL   0x000f4c       data     extern C:\MCC18\v3_39\src\extended\proc\p18F46J50.asm
               DSCONLbits   0x000f4c       data     extern C:\MCC18\v3_39\src\extended\proc\p18F46J50.asm
                   DSGPR0   0x000f4e       data     extern C:\MCC18\v3_39\src\extended\proc\p18F46J50.asm
                   DSGPR1   0x000f4f       data     extern C:\MCC18\v3_39\src\extended\proc\p18F46J50.asm
                  DSWAKEH   0x000f4b       data     extern C:\MCC18\v3_39\src\extended\proc\p18F46J50.asm
              DSWAKEHbits   0x000f4b       data     extern C:\MCC18\v3_39\src\extended\proc\p18F46J50.asm
                  DSWAKEL   0x000f4a       data     extern C:\MCC18\v3_39\src\extended\proc\p18F46J50.asm
              DSWAKELbits   0x000f4a       data     extern C:\MCC18\v3_39\src\extended\proc\p18F46J50.asm
                  ECCP1AS   0x000fbe       data     extern C:\MCC18\v3_39\src\extended\proc\p18F46J50.asm
              ECCP1ASbits   0x000fbe       data     extern C:\MCC18\v3_39\src\extended\proc\p18F46J50.asm
                 ECCP1CON   0x000fba       data     extern C:\MCC18\v3_39\src\extended\proc\p18F46J50.asm
             ECCP1CONbits   0x000fba       data     extern C:\MCC18\v3_39\src\extended\proc\p18F46J50.asm
                 ECCP1DEL   0x000fbd       data     extern C:\MCC18\v3_39\src\extended\proc\p18F46J50.asm
             ECCP1DELbits   0x000fbd       data     extern C:\MCC18\v3_39\src\extended\proc\p18F46J50.asm
                  ECCP2AS   0x000fb8       data     extern C:\MCC18\v3_39\src\extended\proc\p18F46J50.asm
              ECCP2ASbits   0x000fb8       data     extern C:\MCC18\v3_39\src\extended\proc\p18F46J50.asm
                 ECCP2CON   0x000fb4       data     extern C:\MCC18\v3_39\src\extended\proc\p18F46J50.asm
             ECCP2CONbits   0x000fb4       data     extern C:\MCC18\v3_39\src\extended\proc\p18F46J50.asm
                 ECCP2DEL   0x000fb7       data     extern C:\MCC18\v3_39\src\extended\proc\p18F46J50.asm
             ECCP2DELbits   0x000fb7       data     extern C:\MCC18\v3_39\src\extended\proc\p18F46J50.asm
                   EECON1   0x000fa6       data     extern C:\MCC18\v3_39\src\extended\proc\p18F46J50.asm
               EECON1bits   0x000fa6       data     extern C:\MCC18\v3_39\src\extended\proc\p18F46J50.asm
                   EECON2   0x000fa7       data     extern C:\MCC18\v3_39\src\extended\proc\p18F46J50.asm
                     FSR0   0x000fe9       data     extern C:\MCC18\v3_39\src\extended\proc\p18F46J50.asm
                    FSR0H   0x000fea       data     extern C:\MCC18\v3_39\src\extended\proc\p18F46J50.asm
                    FSR0L   0x000fe9       data     extern C:\MCC18\v3_39\src\extended\proc\p18F46J50.asm
                     FSR1   0x000fe1       data     extern C:\MCC18\v3_39\src\extended\proc\p18F46J50.asm
                    FSR1H   0x000fe2       data     extern C:\MCC18\v3_39\src\extended\proc\p18F46J50.asm
                    FSR1L   0x000fe1       data     extern C:\MCC18\v3_39\src\extended\proc\p18F46J50.asm
                     FSR2   0x000fd9       data     extern C:\MCC18\v3_39\src\extended\proc\p18F46J50.asm
                    FSR2H   0x000fda       data     extern C:\MCC18\v3_39\src\extended\proc\p18F46J50.asm
                    FSR2L   0x000fd9       data     extern C:\MCC18\v3_39\src\extended\proc\p18F46J50.asm
                  HLVDCON   0x000f85       data     extern C:\MCC18\v3_39\src\extended\proc\p18F46J50.asm
              HLVDCONbits   0x000f85       data     extern C:\MCC18\v3_39\src\extended\proc\p18F46J50.asm
               IEEESeqNum   0x000eb8       data     extern /Users/sushma/Sushma Workspace/Projects/2013/MLA-Jun-Release-Pkg/Export-mla-jun/Microchip/Transceivers/MRF24J40/MRF24J40.c
                    INDF0   0x000fef       data     extern C:\MCC18\v3_39\src\extended\proc\p18F46J50.asm
                    INDF1   0x000fe7       data     extern C:\MCC18\v3_39\src\extended\proc\p18F46J50.asm
                    INDF2   0x000fdf       data     extern C:\MCC18\v3_39\src\extended\proc\p18F46J50.asm
                   INTCON   0x000ff2       data     extern C:\MCC18\v3_39\src\extended\proc\p18F46J50.asm
                  INTCON2   0x000ff1       data     extern C:\MCC18\v3_39\src\extended\proc\p18F46J50.asm
              INTCON2bits   0x000ff1       data     extern C:\MCC18\v3_39\src\extended\proc\p18F46J50.asm
                  INTCON3   0x000ff0       data     extern C:\MCC18\v3_39\src\extended\proc\p18F46J50.asm
              INTCON3bits   0x000ff0       data     extern C:\MCC18\v3_39\src\extended\proc\p18F46J50.asm
               INTCONbits   0x000ff2       data     extern C:\MCC18\v3_39\src\extended\proc\p18F46J50.asm
                     IPR1   0x000f9f       data     extern C:\MCC18\v3_39\src\extended\proc\p18F46J50.asm
                 IPR1bits   0x000f9f       data     extern C:\MCC18\v3_39\src\extended\proc\p18F46J50.asm
                     IPR2   0x000fa2       data     extern C:\MCC18\v3_39\src\extended\proc\p18F46J50.asm
                 IPR2bits   0x000fa2       data     extern C:\MCC18\v3_39\src\extended\proc\p18F46J50.asm
                     IPR3   0x000fa5       data     extern C:\MCC18\v3_39\src\extended\proc\p18F46J50.asm
                 IPR3bits   0x000fa5       data     extern C:\MCC18\v3_39\src\extended\proc\p18F46J50.asm
     IncomingFrameCounter   0x000e58       data     extern /Users/sushma/Sushma Workspace/Projects/2013/MLA-Jun-Release-Pkg/Export-mla-jun/Microchip/WirelessProtocols/P2P/P2P.c
                     LATA   0x000f89       data     extern C:\MCC18\v3_39\src\extended\proc\p18F46J50.asm
                 LATAbits   0x000f89       data     extern C:\MCC18\v3_39\src\extended\proc\p18F46J50.asm
                     LATB   0x000f8a       data     extern C:\MCC18\v3_39\src\extended\proc\p18F46J50.asm
                 LATBbits   0x000f8a       data     extern C:\MCC18\v3_39\src\extended\proc\p18F46J50.asm
                     LATC   0x000f8b       data     extern C:\MCC18\v3_39\src\extended\proc\p18F46J50.asm
                 LATCbits   0x000f8b       data     extern C:\MCC18\v3_39\src\extended\proc\p18F46J50.asm
                     LATD   0x000f8c       data     extern C:\MCC18\v3_39\src\extended\proc\p18F46J50.asm
                 LATDbits   0x000f8c       data     extern C:\MCC18\v3_39\src\extended\proc\p18F46J50.asm
                     LATE   0x000f8d       data     extern C:\MCC18\v3_39\src\extended\proc\p18F46J50.asm
                 LATEbits   0x000f8d       data     extern C:\MCC18\v3_39\src\extended\proc\p18F46J50.asm
                  LCDText   0x000e84       data     extern /Users/sushma/Sushma Workspace/Projects/2013/MLA-Jun-Release-Pkg/Export-mla-jun/Combo/MiWi Protocol to WiFi Wireless Demo Kit/MiWi_Demo_Board/LCD_ST7032.c
         LatestConnection   0x000e0e       data     extern /Users/sushma/Sushma Workspace/Projects/2013/MLA-Jun-Release-Pkg/Export-mla-jun/Microchip/WirelessProtocols/P2P/P2P.c
        MACCurrentChannel   0x000eb9       data     extern /Users/sushma/Sushma Workspace/Projects/2013/MLA-Jun-Release-Pkg/Export-mla-jun/Microchip/Transceivers/MRF24J40/MRF24J40.c
            MACInitParams   0x000ea5       data     extern /Users/sushma/Sushma Workspace/Projects/2013/MLA-Jun-Release-Pkg/Export-mla-jun/Microchip/Transceivers/MRF24J40/MRF24J40.c
              MACRxPacket   0x000e4d       data     extern /Users/sushma/Sushma Workspace/Projects/2013/MLA-Jun-Release-Pkg/Export-mla-jun/Microchip/WirelessProtocols/P2P/P2P.c
                MAC_PANID   0x000eba       data     extern /Users/sushma/Sushma Workspace/Projects/2013/MLA-Jun-Release-Pkg/Export-mla-jun/Microchip/Transceivers/MRF24J40/MRF24J40.c
           MRF24J40Status   0x000ebe       data     extern /Users/sushma/Sushma Workspace/Projects/2013/MLA-Jun-Release-Pkg/Export-mla-jun/Microchip/Transceivers/MRF24J40/MRF24J40.c
         NetFreezerEnable   0x000020       data     extern /Users/sushma/Sushma Workspace/Projects/2013/MLA-Jun-Release-Pkg/Export-mla-jun/Combo/MiWi Protocol to WiFi Wireless Demo Kit/MiWi_Demo_Board/Demo.c
                   ODCON1   0x000f42       data     extern C:\MCC18\v3_39\src\extended\proc\p18F46J50.asm
               ODCON1bits   0x000f42       data     extern C:\MCC18\v3_39\src\extended\proc\p18F46J50.asm
                   ODCON2   0x000f41       data     extern C:\MCC18\v3_39\src\extended\proc\p18F46J50.asm
               ODCON2bits   0x000f41       data     extern C:\MCC18\v3_39\src\extended\proc\p18F46J50.asm
                   ODCON3   0x000f40       data     extern C:\MCC18\v3_39\src\extended\proc\p18F46J50.asm
               ODCON3bits   0x000f40       data     extern C:\MCC18\v3_39\src\extended\proc\p18F46J50.asm
                   OSCCON   0x000fd3       data     extern C:\MCC18\v3_39\src\extended\proc\p18F46J50.asm
               OSCCONbits   0x000fd3       data     extern C:\MCC18\v3_39\src\extended\proc\p18F46J50.asm
                  OSCTUNE   0x000f9b       data     extern C:\MCC18\v3_39\src\extended\proc\p18F46J50.asm
              OSCTUNEbits   0x000f9b       data     extern C:\MCC18\v3_39\src\extended\proc\p18F46J50.asm
     OutgoingFrameCounter   0x000ea8       data     extern /Users/sushma/Sushma Workspace/Projects/2013/MLA-Jun-Release-Pkg/Export-mla-jun/Microchip/Transceivers/MRF24J40/MRF24J40.c
          P2PCapacityInfo   0x000e03       data     extern /Users/sushma/Sushma Workspace/Projects/2013/MLA-Jun-Release-Pkg/Export-mla-jun/Microchip/WirelessProtocols/P2P/P2P.c
                P2PStatus   0x000e0f       data     extern /Users/sushma/Sushma Workspace/Projects/2013/MLA-Jun-Release-Pkg/Export-mla-jun/Microchip/WirelessProtocols/P2P/P2P.c
                  PADCFG1   0x000f3c       data     extern C:\MCC18\v3_39\src\extended\proc\p18F46J50.asm
              PADCFG1bits   0x000f3c       data     extern C:\MCC18\v3_39\src\extended\proc\p18F46J50.asm
                       PC   0x000ff9       data     extern C:\MCC18\v3_39\src\extended\proc\p18F46J50.asm
                      PCL   0x000ff9       data     extern C:\MCC18\v3_39\src\extended\proc\p18F46J50.asm
                   PCLATH   0x000ffa       data     extern C:\MCC18\v3_39\src\extended\proc\p18F46J50.asm
                   PCLATU   0x000ffb       data     extern C:\MCC18\v3_39\src\extended\proc\p18F46J50.asm
                     PIE1   0x000f9d       data     extern C:\MCC18\v3_39\src\extended\proc\p18F46J50.asm
                 PIE1bits   0x000f9d       data     extern C:\MCC18\v3_39\src\extended\proc\p18F46J50.asm
                     PIE2   0x000fa0       data     extern C:\MCC18\v3_39\src\extended\proc\p18F46J50.asm
                 PIE2bits   0x000fa0       data     extern C:\MCC18\v3_39\src\extended\proc\p18F46J50.asm
                     PIE3   0x000fa3       data     extern C:\MCC18\v3_39\src\extended\proc\p18F46J50.asm
                 PIE3bits   0x000fa3       data     extern C:\MCC18\v3_39\src\extended\proc\p18F46J50.asm
                     PIR1   0x000f9e       data     extern C:\MCC18\v3_39\src\extended\proc\p18F46J50.asm
                 PIR1bits   0x000f9e       data     extern C:\MCC18\v3_39\src\extended\proc\p18F46J50.asm
                     PIR2   0x000fa1       data     extern C:\MCC18\v3_39\src\extended\proc\p18F46J50.asm
                 PIR2bits   0x000fa1       data     extern C:\MCC18\v3_39\src\extended\proc\p18F46J50.asm
                     PIR3   0x000fa4       data     extern C:\MCC18\v3_39\src\extended\proc\p18F46J50.asm
                 PIR3bits   0x000fa4       data     extern C:\MCC18\v3_39\src\extended\proc\p18F46J50.asm
                   PLUSW0   0x000feb       data     extern C:\MCC18\v3_39\src\extended\proc\p18F46J50.asm
                   PLUSW1   0x000fe3       data     extern C:\MCC18\v3_39\src\extended\proc\p18F46J50.asm
                   PLUSW2   0x000fdb       data     extern C:\MCC18\v3_39\src\extended\proc\p18F46J50.asm
                  PMADDRH   0x000f6f       data     extern C:\MCC18\v3_39\src\extended\proc\p18F46J50.asm
              PMADDRHbits   0x000f6f       data     extern C:\MCC18\v3_39\src\extended\proc\p18F46J50.asm
                  PMADDRL   0x000f6e       data     extern C:\MCC18\v3_39\src\extended\proc\p18F46J50.asm
                   PMCONH   0x000f5f       data     extern C:\MCC18\v3_39\src\extended\proc\p18F46J50.asm
               PMCONHbits   0x000f5f       data     extern C:\MCC18\v3_39\src\extended\proc\p18F46J50.asm
                   PMCONL   0x000f5e       data     extern C:\MCC18\v3_39\src\extended\proc\p18F46J50.asm
               PMCONLbits   0x000f5e       data     extern C:\MCC18\v3_39\src\extended\proc\p18F46J50.asm
                  PMDIN1H   0x000f6d       data     extern C:\MCC18\v3_39\src\extended\proc\p18F46J50.asm
                  PMDIN1L   0x000f6c       data     extern C:\MCC18\v3_39\src\extended\proc\p18F46J50.asm
                  PMDIN2H   0x000f59       data     extern C:\MCC18\v3_39\src\extended\proc\p18F46J50.asm
                  PMDIN2L   0x000f58       data     extern C:\MCC18\v3_39\src\extended\proc\p18F46J50.asm
                 PMDOUT1H   0x000f6f       data     extern C:\MCC18\v3_39\src\extended\proc\p18F46J50.asm
                 PMDOUT1L   0x000f6e       data     extern C:\MCC18\v3_39\src\extended\proc\p18F46J50.asm
                 PMDOUT2H   0x000f5b       data     extern C:\MCC18\v3_39\src\extended\proc\p18F46J50.asm
                 PMDOUT2L   0x000f5a       data     extern C:\MCC18\v3_39\src\extended\proc\p18F46J50.asm
                     PMEH   0x000f57       data     extern C:\MCC18\v3_39\src\extended\proc\p18F46J50.asm
                 PMEHbits   0x000f57       data     extern C:\MCC18\v3_39\src\extended\proc\p18F46J50.asm
                     PMEL   0x000f56       data     extern C:\MCC18\v3_39\src\extended\proc\p18F46J50.asm
                 PMELbits   0x000f56       data     extern C:\MCC18\v3_39\src\extended\proc\p18F46J50.asm
                  PMMODEH   0x000f5d       data     extern C:\MCC18\v3_39\src\extended\proc\p18F46J50.asm
              PMMODEHbits   0x000f5d       data     extern C:\MCC18\v3_39\src\extended\proc\p18F46J50.asm
                  PMMODEL   0x000f5c       data     extern C:\MCC18\v3_39\src\extended\proc\p18F46J50.asm
              PMMODELbits   0x000f5c       data     extern C:\MCC18\v3_39\src\extended\proc\p18F46J50.asm
                  PMSTATH   0x000f55       data     extern C:\MCC18\v3_39\src\extended\proc\p18F46J50.asm
              PMSTATHbits   0x000f55       data     extern C:\MCC18\v3_39\src\extended\proc\p18F46J50.asm
                  PMSTATL   0x000f54       data     extern C:\MCC18\v3_39\src\extended\proc\p18F46J50.asm
              PMSTATLbits   0x000f54       data     extern C:\MCC18\v3_39\src\extended\proc\p18F46J50.asm
                    PORTA   0x000f80       data     extern C:\MCC18\v3_39\src\extended\proc\p18F46J50.asm
                PORTAbits   0x000f80       data     extern C:\MCC18\v3_39\src\extended\proc\p18F46J50.asm
                    PORTB   0x000f81       data     extern C:\MCC18\v3_39\src\extended\proc\p18F46J50.asm
                PORTBbits   0x000f81       data     extern C:\MCC18\v3_39\src\extended\proc\p18F46J50.asm
                    PORTC   0x000f82       data     extern C:\MCC18\v3_39\src\extended\proc\p18F46J50.asm
                PORTCbits   0x000f82       data     extern C:\MCC18\v3_39\src\extended\proc\p18F46J50.asm
                    PORTD   0x000f83       data     extern C:\MCC18\v3_39\src\extended\proc\p18F46J50.asm
                PORTDbits   0x000f83       data     extern C:\MCC18\v3_39\src\extended\proc\p18F46J50.asm
                    PORTE   0x000f84       data     extern C:\MCC18\v3_39\src\extended\proc\p18F46J50.asm
                PORTEbits   0x000f84       data     extern C:\MCC18\v3_39\src\extended\proc\p18F46J50.asm
                 POSTDEC0   0x000fed       data     extern C:\MCC18\v3_39\src\extended\proc\p18F46J50.asm
                 POSTDEC1   0x000fe5       data     extern C:\MCC18\v3_39\src\extended\proc\p18F46J50.asm
                 POSTDEC2   0x000fdd       data     extern C:\MCC18\v3_39\src\extended\proc\p18F46J50.asm
                 POSTINC0   0x000fee       data     extern C:\MCC18\v3_39\src\extended\proc\p18F46J50.asm
                 POSTINC1   0x000fe6       data     extern C:\MCC18\v3_39\src\extended\proc\p18F46J50.asm
                 POSTINC2   0x000fde       data     extern C:\MCC18\v3_39\src\extended\proc\p18F46J50.asm
                   PPSCON   0x000eff       data     extern C:\MCC18\v3_39\src\extended\proc\p18F46J50.asm
               PPSCONbits   0x000eff       data     extern C:\MCC18\v3_39\src\extended\proc\p18F46J50.asm
                      PR2   0x000fcb       data     extern C:\MCC18\v3_39\src\extended\proc\p18F46J50.asm
                      PR4   0x000f77       data     extern C:\MCC18\v3_39\src\extended\proc\p18F46J50.asm
                  PREINC0   0x000fec       data     extern C:\MCC18\v3_39\src\extended\proc\p18F46J50.asm
                  PREINC1   0x000fe4       data     extern C:\MCC18\v3_39\src\extended\proc\p18F46J50.asm
                  PREINC2   0x000fdc       data     extern C:\MCC18\v3_39\src\extended\proc\p18F46J50.asm
                     PROD   0x000ff3       data     extern C:\MCC18\v3_39\src\extended\proc\p18F46J50.asm
                    PRODH   0x000ff4       data     extern C:\MCC18\v3_39\src\extended\proc\p18F46J50.asm
                    PRODL   0x000ff3       data     extern C:\MCC18\v3_39\src\extended\proc\p18F46J50.asm
                 PSTR1CON   0x000fbf       data     extern C:\MCC18\v3_39\src\extended\proc\p18F46J50.asm
             PSTR1CONbits   0x000fbf       data     extern C:\MCC18\v3_39\src\extended\proc\p18F46J50.asm
                 PSTR2CON   0x000fb9       data     extern C:\MCC18\v3_39\src\extended\proc\p18F46J50.asm
             PSTR2CONbits   0x000fb9       data     extern C:\MCC18\v3_39\src\extended\proc\p18F46J50.asm
                  PWM1CON   0x000fbd       data     extern C:\MCC18\v3_39\src\extended\proc\p18F46J50.asm
              PWM1CONbits   0x000fbd       data     extern C:\MCC18\v3_39\src\extended\proc\p18F46J50.asm
                  PWM2CON   0x000fb7       data     extern C:\MCC18\v3_39\src\extended\proc\p18F46J50.asm
              PWM2CONbits   0x000fb7       data     extern C:\MCC18\v3_39\src\extended\proc\p18F46J50.asm
                     RCON   0x000fd0       data     extern C:\MCC18\v3_39\src\extended\proc\p18F46J50.asm
                 RCONbits   0x000fd0       data     extern C:\MCC18\v3_39\src\extended\proc\p18F46J50.asm
                    RCREG   0x000faf       data     extern C:\MCC18\v3_39\src\extended\proc\p18F46J50.asm
                   RCREG1   0x000faf       data     extern C:\MCC18\v3_39\src\extended\proc\p18F46J50.asm
                   RCREG2   0x000faa       data     extern C:\MCC18\v3_39\src\extended\proc\p18F46J50.asm
                    RCSTA   0x000fac       data     extern C:\MCC18\v3_39\src\extended\proc\p18F46J50.asm
                   RCSTA1   0x000fac       data     extern C:\MCC18\v3_39\src\extended\proc\p18F46J50.asm
               RCSTA1bits   0x000fac       data     extern C:\MCC18\v3_39\src\extended\proc\p18F46J50.asm
                   RCSTA2   0x000f9c       data     extern C:\MCC18\v3_39\src\extended\proc\p18F46J50.asm
               RCSTA2bits   0x000f9c       data     extern C:\MCC18\v3_39\src\extended\proc\p18F46J50.asm
                RCSTAbits   0x000fac       data     extern C:\MCC18\v3_39\src\extended\proc\p18F46J50.asm
                  REFOCON   0x000f3d       data     extern C:\MCC18\v3_39\src\extended\proc\p18F46J50.asm
              REFOCONbits   0x000f3d       data     extern C:\MCC18\v3_39\src\extended\proc\p18F46J50.asm
                   RPINR1   0x000ee7       data     extern C:\MCC18\v3_39\src\extended\proc\p18F46J50.asm
                  RPINR12   0x000ef2       data     extern C:\MCC18\v3_39\src\extended\proc\p18F46J50.asm
                  RPINR13   0x000ef3       data     extern C:\MCC18\v3_39\src\extended\proc\p18F46J50.asm
                  RPINR16   0x000ef6       data     extern C:\MCC18\v3_39\src\extended\proc\p18F46J50.asm
                  RPINR17   0x000ef7       data     extern C:\MCC18\v3_39\src\extended\proc\p18F46J50.asm
                   RPINR2   0x000ee8       data     extern C:\MCC18\v3_39\src\extended\proc\p18F46J50.asm
                  RPINR21   0x000efb       data     extern C:\MCC18\v3_39\src\extended\proc\p18F46J50.asm
                  RPINR22   0x000efc       data     extern C:\MCC18\v3_39\src\extended\proc\p18F46J50.asm
                  RPINR23   0x000efd       data     extern C:\MCC18\v3_39\src\extended\proc\p18F46J50.asm
                  RPINR24   0x000efe       data     extern C:\MCC18\v3_39\src\extended\proc\p18F46J50.asm
                   RPINR3   0x000ee9       data     extern C:\MCC18\v3_39\src\extended\proc\p18F46J50.asm
                   RPINR4   0x000eea       data     extern C:\MCC18\v3_39\src\extended\proc\p18F46J50.asm
                   RPINR6   0x000eec       data     extern C:\MCC18\v3_39\src\extended\proc\p18F46J50.asm
                   RPINR7   0x000eed       data     extern C:\MCC18\v3_39\src\extended\proc\p18F46J50.asm
                   RPINR8   0x000eee       data     extern C:\MCC18\v3_39\src\extended\proc\p18F46J50.asm
                    RPOR0   0x000ec6       data     extern C:\MCC18\v3_39\src\extended\proc\p18F46J50.asm
                    RPOR1   0x000ec7       data     extern C:\MCC18\v3_39\src\extended\proc\p18F46J50.asm
                   RPOR10   0x000ed0       data     extern C:\MCC18\v3_39\src\extended\proc\p18F46J50.asm
                   RPOR11   0x000ed1       data     extern C:\MCC18\v3_39\src\extended\proc\p18F46J50.asm
                   RPOR12   0x000ed2       data     extern C:\MCC18\v3_39\src\extended\proc\p18F46J50.asm
                   RPOR13   0x000ed3       data     extern C:\MCC18\v3_39\src\extended\proc\p18F46J50.asm
                   RPOR17   0x000ed7       data     extern C:\MCC18\v3_39\src\extended\proc\p18F46J50.asm
                   RPOR18   0x000ed8       data     extern C:\MCC18\v3_39\src\extended\proc\p18F46J50.asm
                   RPOR19   0x000ed9       data     extern C:\MCC18\v3_39\src\extended\proc\p18F46J50.asm
                    RPOR2   0x000ec8       data     extern C:\MCC18\v3_39\src\extended\proc\p18F46J50.asm
                   RPOR20   0x000eda       data     extern C:\MCC18\v3_39\src\extended\proc\p18F46J50.asm
                   RPOR21   0x000edb       data     extern C:\MCC18\v3_39\src\extended\proc\p18F46J50.asm
                   RPOR22   0x000edc       data     extern C:\MCC18\v3_39\src\extended\proc\p18F46J50.asm
                   RPOR23   0x000edd       data     extern C:\MCC18\v3_39\src\extended\proc\p18F46J50.asm
                   RPOR24   0x000ede       data     extern C:\MCC18\v3_39\src\extended\proc\p18F46J50.asm
                    RPOR3   0x000ec9       data     extern C:\MCC18\v3_39\src\extended\proc\p18F46J50.asm
                    RPOR4   0x000eca       data     extern C:\MCC18\v3_39\src\extended\proc\p18F46J50.asm
                    RPOR5   0x000ecb       data     extern C:\MCC18\v3_39\src\extended\proc\p18F46J50.asm
                    RPOR6   0x000ecc       data     extern C:\MCC18\v3_39\src\extended\proc\p18F46J50.asm
                    RPOR7   0x000ecd       data     extern C:\MCC18\v3_39\src\extended\proc\p18F46J50.asm
                    RPOR8   0x000ece       data     extern C:\MCC18\v3_39\src\extended\proc\p18F46J50.asm
                    RPOR9   0x000ecf       data     extern C:\MCC18\v3_39\src\extended\proc\p18F46J50.asm
                   RTCCAL   0x000f3e       data     extern C:\MCC18\v3_39\src\extended\proc\p18F46J50.asm
               RTCCALbits   0x000f3e       data     extern C:\MCC18\v3_39\src\extended\proc\p18F46J50.asm
                   RTCCFG   0x000f3f       data     extern C:\MCC18\v3_39\src\extended\proc\p18F46J50.asm
               RTCCFGbits   0x000f3f       data     extern C:\MCC18\v3_39\src\extended\proc\p18F46J50.asm
                  RTCVALH   0x000f99       data     extern C:\MCC18\v3_39\src\extended\proc\p18F46J50.asm
                  RTCVALL   0x000f98       data     extern C:\MCC18\v3_39\src\extended\proc\p18F46J50.asm
                  RXADDRH   0x000f68       data     extern C:\MCC18\v3_39\src\extended\proc\p18F46J50.asm
              RXADDRHbits   0x000f68       data     extern C:\MCC18\v3_39\src\extended\proc\p18F46J50.asm
                  RXADDRL   0x000f69       data     extern C:\MCC18\v3_39\src\extended\proc\p18F46J50.asm
                 RxBuffer   0x000060       data     extern /Users/sushma/Sushma Workspace/Projects/2013/MLA-Jun-Release-Pkg/Export-mla-jun/Microchip/Transceivers/MRF24J40/MRF24J40.c
                    SPBRG   0x000fb0       data     extern C:\MCC18\v3_39\src\extended\proc\p18F46J50.asm
                   SPBRG1   0x000fb0       data     extern C:\MCC18\v3_39\src\extended\proc\p18F46J50.asm
                   SPBRG2   0x000fab       data     extern C:\MCC18\v3_39\src\extended\proc\p18F46J50.asm
                   SPBRGH   0x000f7f       data     extern C:\MCC18\v3_39\src\extended\proc\p18F46J50.asm
                  SPBRGH1   0x000f7f       data     extern C:\MCC18\v3_39\src\extended\proc\p18F46J50.asm
                  SPBRGH2   0x000f7d       data     extern C:\MCC18\v3_39\src\extended\proc\p18F46J50.asm
                  SSP1ADD   0x000fc8       data     extern C:\MCC18\v3_39\src\extended\proc\p18F46J50.asm
              SSP1ADDbits   0x000fc8       data     extern C:\MCC18\v3_39\src\extended\proc\p18F46J50.asm
                  SSP1BUF   0x000fc9       data     extern C:\MCC18\v3_39\src\extended\proc\p18F46J50.asm
                 SSP1CON1   0x000fc6       data     extern C:\MCC18\v3_39\src\extended\proc\p18F46J50.asm
             SSP1CON1bits   0x000fc6       data     extern C:\MCC18\v3_39\src\extended\proc\p18F46J50.asm
                 SSP1CON2   0x000fc5       data     extern C:\MCC18\v3_39\src\extended\proc\p18F46J50.asm
             SSP1CON2bits   0x000fc5       data     extern C:\MCC18\v3_39\src\extended\proc\p18F46J50.asm
                 SSP1STAT   0x000fc7       data     extern C:\MCC18\v3_39\src\extended\proc\p18F46J50.asm
             SSP1STATbits   0x000fc7       data     extern C:\MCC18\v3_39\src\extended\proc\p18F46J50.asm
                  SSP2ADD   0x000f74       data     extern C:\MCC18\v3_39\src\extended\proc\p18F46J50.asm
              SSP2ADDbits   0x000f74       data     extern C:\MCC18\v3_39\src\extended\proc\p18F46J50.asm
                  SSP2BUF   0x000f75       data     extern C:\MCC18\v3_39\src\extended\proc\p18F46J50.asm
                 SSP2CON1   0x000f72       data     extern C:\MCC18\v3_39\src\extended\proc\p18F46J50.asm
             SSP2CON1bits   0x000f72       data     extern C:\MCC18\v3_39\src\extended\proc\p18F46J50.asm
                 SSP2CON2   0x000f71       data     extern C:\MCC18\v3_39\src\extended\proc\p18F46J50.asm
             SSP2CON2bits   0x000f71       data     extern C:\MCC18\v3_39\src\extended\proc\p18F46J50.asm
                 SSP2STAT   0x000f73       data     extern C:\MCC18\v3_39\src\extended\proc\p18F46J50.asm
             SSP2STATbits   0x000f73       data     extern C:\MCC18\v3_39\src\extended\proc\p18F46J50.asm
                   SSPADD   0x000fc8       data     extern C:\MCC18\v3_39\src\extended\proc\p18F46J50.asm
               SSPADDbits   0x000fc8       data     extern C:\MCC18\v3_39\src\extended\proc\p18F46J50.asm
                   SSPBUF   0x000fc9       data     extern C:\MCC18\v3_39\src\extended\proc\p18F46J50.asm
                  SSPCON1   0x000fc6       data     extern C:\MCC18\v3_39\src\extended\proc\p18F46J50.asm
              SSPCON1bits   0x000fc6       data     extern C:\MCC18\v3_39\src\extended\proc\p18F46J50.asm
                  SSPCON2   0x000fc5       data     extern C:\MCC18\v3_39\src\extended\proc\p18F46J50.asm
              SSPCON2bits   0x000fc5       data     extern C:\MCC18\v3_39\src\extended\proc\p18F46J50.asm
                  SSPSTAT   0x000fc7       data     extern C:\MCC18\v3_39\src\extended\proc\p18F46J50.asm
              SSPSTATbits   0x000fc7       data     extern C:\MCC18\v3_39\src\extended\proc\p18F46J50.asm
                   STATUS   0x000fd8       data     extern C:\MCC18\v3_39\src\extended\proc\p18F46J50.asm
               STATUSbits   0x000fd8       data     extern C:\MCC18\v3_39\src\extended\proc\p18F46J50.asm
                   STKPTR   0x000ffc       data     extern C:\MCC18\v3_39\src\extended\proc\p18F46J50.asm
               STKPTRbits   0x000ffc       data     extern C:\MCC18\v3_39\src\extended\proc\p18F46J50.asm
                    T0CON   0x000fd5       data     extern C:\MCC18\v3_39\src\extended\proc\p18F46J50.asm
                T0CONbits   0x000fd5       data     extern C:\MCC18\v3_39\src\extended\proc\p18F46J50.asm
                    T1CON   0x000fcd       data     extern C:\MCC18\v3_39\src\extended\proc\p18F46J50.asm
                T1CONbits   0x000fcd       data     extern C:\MCC18\v3_39\src\extended\proc\p18F46J50.asm
                   T1GCON   0x000f9a       data     extern C:\MCC18\v3_39\src\extended\proc\p18F46J50.asm
               T1GCONbits   0x000f9a       data     extern C:\MCC18\v3_39\src\extended\proc\p18F46J50.asm
                    T2CON   0x000fca       data     extern C:\MCC18\v3_39\src\extended\proc\p18F46J50.asm
                T2CONbits   0x000fca       data     extern C:\MCC18\v3_39\src\extended\proc\p18F46J50.asm
                    T3CON   0x000f79       data     extern C:\MCC18\v3_39\src\extended\proc\p18F46J50.asm
                T3CONbits   0x000f79       data     extern C:\MCC18\v3_39\src\extended\proc\p18F46J50.asm
                   T3GCON   0x000f97       data     extern C:\MCC18\v3_39\src\extended\proc\p18F46J50.asm
               T3GCONbits   0x000f97       data     extern C:\MCC18\v3_39\src\extended\proc\p18F46J50.asm
                    T4CON   0x000f76       data     extern C:\MCC18\v3_39\src\extended\proc\p18F46J50.asm
                T4CONbits   0x000f76       data     extern C:\MCC18\v3_39\src\extended\proc\p18F46J50.asm
                   TABLAT   0x000ff5       data     extern C:\MCC18\v3_39\src\extended\proc\p18F46J50.asm
                   TBLPTR   0x000ff6       data     extern C:\MCC18\v3_39\src\extended\proc\p18F46J50.asm
                  TBLPTRH   0x000ff7       data     extern C:\MCC18\v3_39\src\extended\proc\p18F46J50.asm
                  TBLPTRL   0x000ff6       data     extern C:\MCC18\v3_39\src\extended\proc\p18F46J50.asm
                  TBLPTRU   0x000ff8       data     extern C:\MCC18\v3_39\src\extended\proc\p18F46J50.asm
                  TCLKCON   0x000f52       data     extern C:\MCC18\v3_39\src\extended\proc\p18F46J50.asm
              TCLKCONbits   0x000f52       data     extern C:\MCC18\v3_39\src\extended\proc\p18F46J50.asm
                    TMR0H   0x000fd7       data     extern C:\MCC18\v3_39\src\extended\proc\p18F46J50.asm
                    TMR0L   0x000fd6       data     extern C:\MCC18\v3_39\src\extended\proc\p18F46J50.asm
                    TMR1H   0x000fcf       data     extern C:\MCC18\v3_39\src\extended\proc\p18F46J50.asm
                    TMR1L   0x000fce       data     extern C:\MCC18\v3_39\src\extended\proc\p18F46J50.asm
                     TMR2   0x000fcc       data     extern C:\MCC18\v3_39\src\extended\proc\p18F46J50.asm
                    TMR3H   0x000f7b       data     extern C:\MCC18\v3_39\src\extended\proc\p18F46J50.asm
                    TMR3L   0x000f7a       data     extern C:\MCC18\v3_39\src\extended\proc\p18F46J50.asm
                     TMR4   0x000f78       data     extern C:\MCC18\v3_39\src\extended\proc\p18F46J50.asm
                      TOS   0x000ffd       data     extern C:\MCC18\v3_39\src\extended\proc\p18F46J50.asm
                     TOSH   0x000ffe       data     extern C:\MCC18\v3_39\src\extended\proc\p18F46J50.asm
                     TOSL   0x000ffd       data     extern C:\MCC18\v3_39\src\extended\proc\p18F46J50.asm
                     TOSU   0x000fff       data     extern C:\MCC18\v3_39\src\extended\proc\p18F46J50.asm
                    TRISA   0x000f92       data     extern C:\MCC18\v3_39\src\extended\proc\p18F46J50.asm
                TRISAbits   0x000f92       data     extern C:\MCC18\v3_39\src\extended\proc\p18F46J50.asm
                    TRISB   0x000f93       data     extern C:\MCC18\v3_39\src\extended\proc\p18F46J50.asm
                TRISBbits   0x000f93       data     extern C:\MCC18\v3_39\src\extended\proc\p18F46J50.asm
                    TRISC   0x000f94       data     extern C:\MCC18\v3_39\src\extended\proc\p18F46J50.asm
                TRISCbits   0x000f94       data     extern C:\MCC18\v3_39\src\extended\proc\p18F46J50.asm
                    TRISD   0x000f95       data     extern C:\MCC18\v3_39\src\extended\proc\p18F46J50.asm
                TRISDbits   0x000f95       data     extern C:\MCC18\v3_39\src\extended\proc\p18F46J50.asm
                    TRISE   0x000f96       data     extern C:\MCC18\v3_39\src\extended\proc\p18F46J50.asm
                TRISEbits   0x000f96       data     extern C:\MCC18\v3_39\src\extended\proc\p18F46J50.asm
                  TXADDRH   0x000f6a       data     extern C:\MCC18\v3_39\src\extended\proc\p18F46J50.asm
              TXADDRHbits   0x000f6a       data     extern C:\MCC18\v3_39\src\extended\proc\p18F46J50.asm
                  TXADDRL   0x000f6b       data     extern C:\MCC18\v3_39\src\extended\proc\p18F46J50.asm
                    TXREG   0x000fae       data     extern C:\MCC18\v3_39\src\extended\proc\p18F46J50.asm
                   TXREG1   0x000fae       data     extern C:\MCC18\v3_39\src\extended\proc\p18F46J50.asm
                   TXREG2   0x000fa9       data     extern C:\MCC18\v3_39\src\extended\proc\p18F46J50.asm
                    TXSTA   0x000fad       data     extern C:\MCC18\v3_39\src\extended\proc\p18F46J50.asm
                   TXSTA1   0x000fad       data     extern C:\MCC18\v3_39\src\extended\proc\p18F46J50.asm
               TXSTA1bits   0x000fad       data     extern C:\MCC18\v3_39\src\extended\proc\p18F46J50.asm
                   TXSTA2   0x000fa8       data     extern C:\MCC18\v3_39\src\extended\proc\p18F46J50.asm
               TXSTA2bits   0x000fa8       data     extern C:\MCC18\v3_39\src\extended\proc\p18F46J50.asm
                TXSTAbits   0x000fad       data     extern C:\MCC18\v3_39\src\extended\proc\p18F46J50.asm
                 TxBuffer   0x0002d8       data     extern /Users/sushma/Sushma Workspace/Projects/2013/MLA-Jun-Release-Pkg/Export-mla-jun/Microchip/WirelessProtocols/P2P/P2P.c
                   TxData   0x000e02       data     extern /Users/sushma/Sushma Workspace/Projects/2013/MLA-Jun-Release-Pkg/Export-mla-jun/Microchip/WirelessProtocols/P2P/P2P.c
                    UADDR   0x000f38       data     extern C:\MCC18\v3_39\src\extended\proc\p18F46J50.asm
                UADDRbits   0x000f38       data     extern C:\MCC18\v3_39\src\extended\proc\p18F46J50.asm
                     UCFG   0x000f39       data     extern C:\MCC18\v3_39\src\extended\proc\p18F46J50.asm
                 UCFGbits   0x000f39       data     extern C:\MCC18\v3_39\src\extended\proc\p18F46J50.asm
                     UCON   0x000f65       data     extern C:\MCC18\v3_39\src\extended\proc\p18F46J50.asm
                 UCONbits   0x000f65       data     extern C:\MCC18\v3_39\src\extended\proc\p18F46J50.asm
                     UEIE   0x000f37       data     extern C:\MCC18\v3_39\src\extended\proc\p18F46J50.asm
                 UEIEbits   0x000f37       data     extern C:\MCC18\v3_39\src\extended\proc\p18F46J50.asm
                     UEIR   0x000f63       data     extern C:\MCC18\v3_39\src\extended\proc\p18F46J50.asm
                 UEIRbits   0x000f63       data     extern C:\MCC18\v3_39\src\extended\proc\p18F46J50.asm
                     UEP0   0x000f26       data     extern C:\MCC18\v3_39\src\extended\proc\p18F46J50.asm
                 UEP0bits   0x000f26       data     extern C:\MCC18\v3_39\src\extended\proc\p18F46J50.asm
                     UEP1   0x000f27       data     extern C:\MCC18\v3_39\src\extended\proc\p18F46J50.asm
                    UEP10   0x000f30       data     extern C:\MCC18\v3_39\src\extended\proc\p18F46J50.asm
                UEP10bits   0x000f30       data     extern C:\MCC18\v3_39\src\extended\proc\p18F46J50.asm
                    UEP11   0x000f31       data     extern C:\MCC18\v3_39\src\extended\proc\p18F46J50.asm
                UEP11bits   0x000f31       data     extern C:\MCC18\v3_39\src\extended\proc\p18F46J50.asm
                    UEP12   0x000f32       data     extern C:\MCC18\v3_39\src\extended\proc\p18F46J50.asm
                UEP12bits   0x000f32       data     extern C:\MCC18\v3_39\src\extended\proc\p18F46J50.asm
                    UEP13   0x000f33       data     extern C:\MCC18\v3_39\src\extended\proc\p18F46J50.asm
                UEP13bits   0x000f33       data     extern C:\MCC18\v3_39\src\extended\proc\p18F46J50.asm
                    UEP14   0x000f34       data     extern C:\MCC18\v3_39\src\extended\proc\p18F46J50.asm
                UEP14bits   0x000f34       data     extern C:\MCC18\v3_39\src\extended\proc\p18F46J50.asm
                    UEP15   0x000f35       data     extern C:\MCC18\v3_39\src\extended\proc\p18F46J50.asm
                UEP15bits   0x000f35       data     extern C:\MCC18\v3_39\src\extended\proc\p18F46J50.asm
                 UEP1bits   0x000f27       data     extern C:\MCC18\v3_39\src\extended\proc\p18F46J50.asm
                     UEP2   0x000f28       data     extern C:\MCC18\v3_39\src\extended\proc\p18F46J50.asm
                 UEP2bits   0x000f28       data     extern C:\MCC18\v3_39\src\extended\proc\p18F46J50.asm
                     UEP3   0x000f29       data     extern C:\MCC18\v3_39\src\extended\proc\p18F46J50.asm
                 UEP3bits   0x000f29       data     extern C:\MCC18\v3_39\src\extended\proc\p18F46J50.asm
                     UEP4   0x000f2a       data     extern C:\MCC18\v3_39\src\extended\proc\p18F46J50.asm
                 UEP4bits   0x000f2a       data     extern C:\MCC18\v3_39\src\extended\proc\p18F46J50.asm
                     UEP5   0x000f2b       data     extern C:\MCC18\v3_39\src\extended\proc\p18F46J50.asm
                 UEP5bits   0x000f2b       data     extern C:\MCC18\v3_39\src\extended\proc\p18F46J50.asm
                     UEP6   0x000f2c       data     extern C:\MCC18\v3_39\src\extended\proc\p18F46J50.asm
                 UEP6bits   0x000f2c       data     extern C:\MCC18\v3_39\src\extended\proc\p18F46J50.asm
                     UEP7   0x000f2d       data     extern C:\MCC18\v3_39\src\extended\proc\p18F46J50.asm
                 UEP7bits   0x000f2d       data     extern C:\MCC18\v3_39\src\extended\proc\p18F46J50.asm
                     UEP8   0x000f2e       data     extern C:\MCC18\v3_39\src\extended\proc\p18F46J50.asm
                 UEP8bits   0x000f2e       data     extern C:\MCC18\v3_39\src\extended\proc\p18F46J50.asm
                     UEP9   0x000f2f       data     extern C:\MCC18\v3_39\src\extended\proc\p18F46J50.asm
                 UEP9bits   0x000f2f       data     extern C:\MCC18\v3_39\src\extended\proc\p18F46J50.asm
                     UFRM   0x000f60       data     extern C:\MCC18\v3_39\src\extended\proc\p18F46J50.asm
                    UFRMH   0x000f61       data     extern C:\MCC18\v3_39\src\extended\proc\p18F46J50.asm
                UFRMHbits   0x000f61       data     extern C:\MCC18\v3_39\src\extended\proc\p18F46J50.asm
                    UFRML   0x000f60       data     extern C:\MCC18\v3_39\src\extended\proc\p18F46J50.asm
                UFRMLbits   0x000f60       data     extern C:\MCC18\v3_39\src\extended\proc\p18F46J50.asm
                      UIE   0x000f36       data     extern C:\MCC18\v3_39\src\extended\proc\p18F46J50.asm
                  UIEbits   0x000f36       data     extern C:\MCC18\v3_39\src\extended\proc\p18F46J50.asm
                      UIR   0x000f62       data     extern C:\MCC18\v3_39\src\extended\proc\p18F46J50.asm
                  UIRbits   0x000f62       data     extern C:\MCC18\v3_39\src\extended\proc\p18F46J50.asm
                    USTAT   0x000f64       data     extern C:\MCC18\v3_39\src\extended\proc\p18F46J50.asm
                USTATbits   0x000f64       data     extern C:\MCC18\v3_39\src\extended\proc\p18F46J50.asm
                   WDTCON   0x000fc0       data     extern C:\MCC18\v3_39\src\extended\proc\p18F46J50.asm
               WDTCONbits   0x000fc0       data     extern C:\MCC18\v3_39\src\extended\proc\p18F46J50.asm
                     WREG   0x000fe8       data     extern C:\MCC18\v3_39\src\extended\proc\p18F46J50.asm
                __RETVAL0   0x0000fc       data     extern C:\MCC18\v3_39\src\extended\math\cmath18.asm
                __RETVAL1   0x0000fd       data     extern C:\MCC18\v3_39\src\extended\math\cmath18.asm
                __RETVAL2   0x0000fe       data     extern C:\MCC18\v3_39\src\extended\math\cmath18.asm
                __RETVAL3   0x0000ff       data     extern C:\MCC18\v3_39\src\extended\math\cmath18.asm
                  __tmp_0   0x000014       data     static C:\MCC18\v3_39\src\extended\stdclib\vfprintf.c
                  __tmp_0   0x000014       data     static /Users/sushma/Sushma Workspace/Projects/2013/MLA-Jun-Release-Pkg/Export-mla-jun/Combo/MiWi Protocol to WiFi Wireless Demo Kit/MiWi_Demo_Board/LocalFiles/NVM.c
                  __tmp_0   0x000014       data     static /Users/sushma/Sushma Workspace/Projects/2013/MLA-Jun-Release-Pkg/Export-mla-jun/Microchip/WirelessProtocols/P2P/P2P.c
                  __tmp_0   0x000014       data     static /Users/sushma/Sushma Workspace/Projects/2013/MLA-Jun-Release-Pkg/Export-mla-jun/Microchip/Common/TimeDelay.c
                  __tmp_0   0x000014       data     static /Users/sushma/Sushma Workspace/Projects/2013/MLA-Jun-Release-Pkg/Export-mla-jun/Combo/MiWi Protocol to WiFi Wireless Demo Kit/MiWi_Demo_Board/MAC_EEProm.c
                  __tmp_0   0x000014       data     static /Users/sushma/Sushma Workspace/Projects/2013/MLA-Jun-Release-Pkg/Export-mla-jun/Microchip/Transceivers/MRF24J40/MRF24J40.c
                  __tmp_0   0x000014       data     static /Users/sushma/Sushma Workspace/Projects/2013/MLA-Jun-Release-Pkg/Export-mla-jun/Combo/MiWi Protocol to WiFi Wireless Demo Kit/MiWi_Demo_Board/Demo.c
                  __tmp_1   0x0001fa       data     static /Users/sushma/Sushma Workspace/Projects/2013/MLA-Jun-Release-Pkg/Export-mla-jun/Microchip/Transceivers/MRF24J40/MRF24J40.c
        connectionAddress   0x0001e1       data     extern /Users/sushma/Sushma Workspace/Projects/2013/MLA-Jun-Release-Pkg/Export-mla-jun/Combo/MiWi Protocol to WiFi Wireless Demo Kit/MiWi_Demo_Board/Demo.c
                curr_byte   0x0001f3       data     static C:\MCC18\v3_39\src\extended\startup\c018i_e.c
               curr_entry   0x0001f5       data     static C:\MCC18\v3_39\src\extended\startup\c018i_e.c
           currentChannel   0x000012       data     extern /Users/sushma/Sushma Workspace/Projects/2013/MLA-Jun-Release-Pkg/Export-mla-jun/Microchip/WirelessProtocols/P2P/P2P.c
                 data_ptr   0x0001f7       data     static C:\MCC18\v3_39\src\extended\startup\c018i_e.c
           failureCounter   0x00001d       data     extern /Users/sushma/Sushma Workspace/Projects/2013/MLA-Jun-Release-Pkg/Export-mla-jun/Microchip/Transceivers/MRF24J40/MRF24J40.c
         indirectMessages   0x000200       data     extern /Users/sushma/Sushma Workspace/Projects/2013/MLA-Jun-Release-Pkg/Export-mla-jun/Microchip/WirelessProtocols/P2P/P2P.c
                myChannel   0x00001f       data     extern /Users/sushma/Sushma Workspace/Projects/2013/MLA-Jun-Release-Pkg/Export-mla-jun/Combo/MiWi Protocol to WiFi Wireless Demo Kit/MiWi_Demo_Board/Demo.c
            myLongAddress   0x00000a       data     extern /Users/sushma/Sushma Workspace/Projects/2013/MLA-Jun-Release-Pkg/Export-mla-jun/Microchip/WirelessProtocols/P2P/P2P.c
         myNetworkAddress   0x000ebc       data     extern /Users/sushma/Sushma Workspace/Projects/2013/MLA-Jun-Release-Pkg/Export-mla-jun/Microchip/Transceivers/MRF24J40/MRF24J40.c
                  myPANID   0x000e00       data     extern /Users/sushma/Sushma Workspace/Projects/2013/MLA-Jun-Release-Pkg/Export-mla-jun/Microchip/WirelessProtocols/P2P/P2P.c
           nextEEPosition   0x0001ee       data     extern /Users/sushma/Sushma Workspace/Projects/2013/MLA-Jun-Release-Pkg/Export-mla-jun/Combo/MiWi Protocol to WiFi Wireless Demo Kit/MiWi_Demo_Board/LocalFiles/NVM.c
              nvmConnMode   0x0001e8       data     extern /Users/sushma/Sushma Workspace/Projects/2013/MLA-Jun-Release-Pkg/Export-mla-jun/Combo/MiWi Protocol to WiFi Wireless Demo Kit/MiWi_Demo_Board/LocalFiles/NVM.c
       nvmConnectionTable   0x0001ea       data     extern /Users/sushma/Sushma Workspace/Projects/2013/MLA-Jun-Release-Pkg/Export-mla-jun/Combo/MiWi Protocol to WiFi Wireless Demo Kit/MiWi_Demo_Board/LocalFiles/NVM.c
        nvmCurrentChannel   0x0001e6       data     extern /Users/sushma/Sushma Workspace/Projects/2013/MLA-Jun-Release-Pkg/Export-mla-jun/Combo/MiWi Protocol to WiFi Wireless Demo Kit/MiWi_Demo_Board/LocalFiles/NVM.c
             nvmDelayTick   0x000e80       data     extern /Users/sushma/Sushma Workspace/Projects/2013/MLA-Jun-Release-Pkg/Export-mla-jun/Microchip/WirelessProtocols/P2P/P2P.c
               nvmMyPANID   0x0001e4       data     extern /Users/sushma/Sushma Workspace/Projects/2013/MLA-Jun-Release-Pkg/Export-mla-jun/Combo/MiWi Protocol to WiFi Wireless Demo Kit/MiWi_Demo_Board/LocalFiles/NVM.c
       nvmOutFrameCounter   0x0001ec       data     extern /Users/sushma/Sushma Workspace/Projects/2013/MLA-Jun-Release-Pkg/Export-mla-jun/Combo/MiWi Protocol to WiFi Wireless Demo Kit/MiWi_Demo_Board/LocalFiles/NVM.c
                     prom   0x0001f0       data     static C:\MCC18\v3_39\src\extended\startup\c018i_e.c
                rxMessage   0x000e04       data     extern /Users/sushma/Sushma Workspace/Projects/2013/MLA-Jun-Release-Pkg/Export-mla-jun/Microchip/WirelessProtocols/P2P/P2P.c
         switch0PressTime   0x000001       data     extern /Users/sushma/Sushma Workspace/Projects/2013/MLA-Jun-Release-Pkg/Export-mla-jun/Combo/MiWi Protocol to WiFi Wireless Demo Kit/MiWi_Demo_Board/BSP_MiWiDemoBd.c
           switch0Pressed   0x000000       data     extern /Users/sushma/Sushma Workspace/Projects/2013/MLA-Jun-Release-Pkg/Export-mla-jun/Combo/MiWi Protocol to WiFi Wireless Demo Kit/MiWi_Demo_Board/BSP_MiWiDemoBd.c
         switch1PressTime   0x000006       data     extern /Users/sushma/Sushma Workspace/Projects/2013/MLA-Jun-Release-Pkg/Export-mla-jun/Combo/MiWi Protocol to WiFi Wireless Demo Kit/MiWi_Demo_Board/BSP_MiWiDemoBd.c
           switch1Pressed   0x000005       data     extern /Users/sushma/Sushma Workspace/Projects/2013/MLA-Jun-Release-Pkg/Export-mla-jun/Combo/MiWi Protocol to WiFi Wireless Demo Kit/MiWi_Demo_Board/BSP_MiWiDemoBd.c
          timerExtension1   0x0001fe       data     extern /Users/sushma/Sushma Workspace/Projects/2013/MLA-Jun-Release-Pkg/Export-mla-jun/Microchip/WirelessProtocols/SymbolTime.c
          timerExtension2   0x0001ff       data     extern /Users/sushma/Sushma Workspace/Projects/2013/MLA-Jun-Release-Pkg/Export-mla-jun/Microchip/WirelessProtocols/SymbolTime.c
          tmpFrameCounter   0x000eb4       data     extern /Users/sushma/Sushma Workspace/Projects/2013/MLA-Jun-Release-Pkg/Export-mla-jun/Microchip/Transceivers/MRF24J40/MRF24J40.c
     tmpSourceLongAddress   0x000eac       data     extern /Users/sushma/Sushma Workspace/Projects/2013/MLA-Jun-Release-Pkg/Export-mla-jun/Microchip/Transceivers/MRF24J40/MRF24J40.c



                              Symbols - Sorted by Address
                     Name    Address   Location    Storage File                     
                ---------  ---------  ---------  --------- ---------                
                   _entry   0x000000    program     extern C:\MCC18\v3_39\src\extended\startup\c018i_e.c
       ___return_lbl00000   0x000004    program     static                          
          mySecurityLevel   0x000006    program     extern /Users/sushma/Sushma Workspace/Projects/2013/MLA-Jun-Release-Pkg/Export-mla-jun/Microchip/Transceivers/MRF24J40/MRF24J40.c
      myKeySequenceNumber   0x000007    program     extern /Users/sushma/Sushma Workspace/Projects/2013/MLA-Jun-Release-Pkg/Export-mla-jun/Microchip/Transceivers/MRF24J40/MRF24J40.c
               HighVector   0x000008    program     extern /Users/sushma/Sushma Workspace/Projects/2013/MLA-Jun-Release-Pkg/Export-mla-jun/Microchip/Transceivers/MRF24J40/MRF24J40.c
       ___return_lbl00218   0x00000c    program     static                          
               _user_putc   0x00000e    program     extern C:\MCC18\v3_39\src\extended\stdclib\_user_putc.c
                   __init   0x000010    program     extern C:\MCC18\v3_39\src\extended\stdclib\__init.c
                LowVector   0x000018    program     extern /Users/sushma/Sushma Workspace/Projects/2013/MLA-Jun-Release-Pkg/Export-mla-jun/Microchip/Transceivers/MRF24J40/MRF24J40.c
       ___return_lbl00219   0x00001c    program     static                          
            mySecurityKey   0x00002e    program     extern /Users/sushma/Sushma Workspace/Projects/2013/MLA-Jun-Release-Pkg/Export-mla-jun/Microchip/Transceivers/MRF24J40/MRF24J40.c
                 MacroNop   0x000064    program     extern /Users/sushma/Sushma Workspace/Projects/2013/MLA-Jun-Release-Pkg/Export-mla-jun/Microchip/WirelessProtocols/P2P/P2P.c
       ___return_lbl00000   0x000066    program     static                          
                 P2PTasks   0x000068    program     extern /Users/sushma/Sushma Workspace/Projects/2013/MLA-Jun-Release-Pkg/Export-mla-jun/Microchip/WirelessProtocols/P2P/P2P.c
       MiApp_ProtocolInit   0x0005fc    program     extern /Users/sushma/Sushma Workspace/Projects/2013/MLA-Jun-Release-Pkg/Export-mla-jun/Microchip/WirelessProtocols/P2P/P2P.c
           IndirectPacket   0x000748    program     extern /Users/sushma/Sushma Workspace/Projects/2013/MLA-Jun-Release-Pkg/Export-mla-jun/Microchip/WirelessProtocols/P2P/P2P.c
               SendPacket   0x0008a4    program     extern /Users/sushma/Sushma Workspace/Projects/2013/MLA-Jun-Release-Pkg/Export-mla-jun/Microchip/WirelessProtocols/P2P/P2P.c
    MiApp_BroadcastPacket   0x000956    program     extern /Users/sushma/Sushma Workspace/Projects/2013/MLA-Jun-Release-Pkg/Export-mla-jun/Microchip/WirelessProtocols/P2P/P2P.c
  MiApp_UnicastConnection   0x000996    program     extern /Users/sushma/Sushma Workspace/Projects/2013/MLA-Jun-Release-Pkg/Export-mla-jun/Microchip/WirelessProtocols/P2P/P2P.c
     MiApp_UnicastAddress   0x0009d4    program     extern /Users/sushma/Sushma Workspace/Projects/2013/MLA-Jun-Release-Pkg/Export-mla-jun/Microchip/WirelessProtocols/P2P/P2P.c
            isSameAddress   0x000a24    program     extern /Users/sushma/Sushma Workspace/Projects/2013/MLA-Jun-Release-Pkg/Export-mla-jun/Microchip/WirelessProtocols/P2P/P2P.c
    MiApp_StartConnection   0x000a64    program     extern /Users/sushma/Sushma Workspace/Projects/2013/MLA-Jun-Release-Pkg/Export-mla-jun/Microchip/WirelessProtocols/P2P/P2P.c
MiApp_EstablishConnection   0x000ac4    program     extern /Users/sushma/Sushma Workspace/Projects/2013/MLA-Jun-Release-Pkg/Export-mla-jun/Microchip/WirelessProtocols/P2P/P2P.c
     MiApp_DiscardMessage   0x000bce    program     extern /Users/sushma/Sushma Workspace/Projects/2013/MLA-Jun-Release-Pkg/Export-mla-jun/Microchip/WirelessProtocols/P2P/P2P.c
         MiApp_SetChannel   0x000bd6    program     extern /Users/sushma/Sushma Workspace/Projects/2013/MLA-Jun-Release-Pkg/Export-mla-jun/Microchip/WirelessProtocols/P2P/P2P.c
   MiApp_MessageAvailable   0x000bfc    program     extern /Users/sushma/Sushma Workspace/Projects/2013/MLA-Jun-Release-Pkg/Export-mla-jun/Microchip/WirelessProtocols/P2P/P2P.c
           DumpConnection   0x000c0c    program     extern /Users/sushma/Sushma Workspace/Projects/2013/MLA-Jun-Release-Pkg/Export-mla-jun/Microchip/WirelessProtocols/P2P/P2P.c
            AddConnection   0x000c82    program     extern /Users/sushma/Sushma Workspace/Projects/2013/MLA-Jun-Release-Pkg/Export-mla-jun/Microchip/WirelessProtocols/P2P/P2P.c
   MiApp_SearchConnection   0x000d34    program     extern /Users/sushma/Sushma Workspace/Projects/2013/MLA-Jun-Release-Pkg/Export-mla-jun/Microchip/WirelessProtocols/P2P/P2P.c
     MiApp_NoiseDetection   0x000df4    program     extern /Users/sushma/Sushma Workspace/Projects/2013/MLA-Jun-Release-Pkg/Export-mla-jun/Microchip/WirelessProtocols/P2P/P2P.c
      StartChannelHopping   0x000ee0    program     extern /Users/sushma/Sushma Workspace/Projects/2013/MLA-Jun-Release-Pkg/Export-mla-jun/Microchip/WirelessProtocols/P2P/P2P.c
   MiApp_ResyncConnection   0x000f3a    program     extern /Users/sushma/Sushma Workspace/Projects/2013/MLA-Jun-Release-Pkg/Export-mla-jun/Microchip/WirelessProtocols/P2P/P2P.c
 MiApp_InitChannelHopping   0x001028    program     extern /Users/sushma/Sushma Workspace/Projects/2013/MLA-Jun-Release-Pkg/Export-mla-jun/Microchip/WirelessProtocols/P2P/P2P.c
   MiApp_RemoveConnection   0x00107e    program     extern /Users/sushma/Sushma Workspace/Projects/2013/MLA-Jun-Release-Pkg/Export-mla-jun/Microchip/WirelessProtocols/P2P/P2P.c
     MiApp_ConnectionMode   0x0010f8    program     extern /Users/sushma/Sushma Workspace/Projects/2013/MLA-Jun-Release-Pkg/Export-mla-jun/Microchip/WirelessProtocols/P2P/P2P.c
                   __pa_0   0x001122    program     static /Users/sushma/Sushma Workspace/Projects/2013/MLA-Jun-Release-Pkg/Export-mla-jun/Microchip/WirelessProtocols/P2P/P2P.c
                   __pa_1   0x00112a    program     static /Users/sushma/Sushma Workspace/Projects/2013/MLA-Jun-Release-Pkg/Export-mla-jun/Microchip/WirelessProtocols/P2P/P2P.c
                   __pa_2   0x001138    program     static /Users/sushma/Sushma Workspace/Projects/2013/MLA-Jun-Release-Pkg/Export-mla-jun/Microchip/WirelessProtocols/P2P/P2P.c
                   __pa_3   0x00113e    program     static /Users/sushma/Sushma Workspace/Projects/2013/MLA-Jun-Release-Pkg/Export-mla-jun/Microchip/WirelessProtocols/P2P/P2P.c
                   __pa_4   0x00114e    program     static /Users/sushma/Sushma Workspace/Projects/2013/MLA-Jun-Release-Pkg/Export-mla-jun/Microchip/WirelessProtocols/P2P/P2P.c
                   __pa_5   0x00115e    program     static /Users/sushma/Sushma Workspace/Projects/2013/MLA-Jun-Release-Pkg/Export-mla-jun/Microchip/WirelessProtocols/P2P/P2P.c
                   __pa_6   0x00116c    program     static /Users/sushma/Sushma Workspace/Projects/2013/MLA-Jun-Release-Pkg/Export-mla-jun/Microchip/WirelessProtocols/P2P/P2P.c
                   __pa_7   0x001172    program     static /Users/sushma/Sushma Workspace/Projects/2013/MLA-Jun-Release-Pkg/Export-mla-jun/Microchip/WirelessProtocols/P2P/P2P.c
                   __pa_8   0x001190    program     static /Users/sushma/Sushma Workspace/Projects/2013/MLA-Jun-Release-Pkg/Export-mla-jun/Microchip/WirelessProtocols/P2P/P2P.c
                   __pa_9   0x00119c    program     static /Users/sushma/Sushma Workspace/Projects/2013/MLA-Jun-Release-Pkg/Export-mla-jun/Microchip/WirelessProtocols/P2P/P2P.c
                  __pa_10   0x0011a2    program     static /Users/sushma/Sushma Workspace/Projects/2013/MLA-Jun-Release-Pkg/Export-mla-jun/Microchip/WirelessProtocols/P2P/P2P.c
                  __pa_11   0x0011b0    program     static /Users/sushma/Sushma Workspace/Projects/2013/MLA-Jun-Release-Pkg/Export-mla-jun/Microchip/WirelessProtocols/P2P/P2P.c
                  __pa_12   0x0011ba    program     static /Users/sushma/Sushma Workspace/Projects/2013/MLA-Jun-Release-Pkg/Export-mla-jun/Microchip/WirelessProtocols/P2P/P2P.c
                  __pa_13   0x0011c8    program     static /Users/sushma/Sushma Workspace/Projects/2013/MLA-Jun-Release-Pkg/Export-mla-jun/Microchip/WirelessProtocols/P2P/P2P.c
                  __pa_14   0x0011ea    program     static /Users/sushma/Sushma Workspace/Projects/2013/MLA-Jun-Release-Pkg/Export-mla-jun/Microchip/WirelessProtocols/P2P/P2P.c
                  __pa_15   0x0011f0    program     static /Users/sushma/Sushma Workspace/Projects/2013/MLA-Jun-Release-Pkg/Export-mla-jun/Microchip/WirelessProtocols/P2P/P2P.c
                  __pa_16   0x00120c    program     static /Users/sushma/Sushma Workspace/Projects/2013/MLA-Jun-Release-Pkg/Export-mla-jun/Microchip/WirelessProtocols/P2P/P2P.c
                  __pa_17   0x00121a    program     static /Users/sushma/Sushma Workspace/Projects/2013/MLA-Jun-Release-Pkg/Export-mla-jun/Microchip/WirelessProtocols/P2P/P2P.c
                  __pa_18   0x001246    program     static /Users/sushma/Sushma Workspace/Projects/2013/MLA-Jun-Release-Pkg/Export-mla-jun/Microchip/WirelessProtocols/P2P/P2P.c
                  __pa_19   0x00125e    program     static /Users/sushma/Sushma Workspace/Projects/2013/MLA-Jun-Release-Pkg/Export-mla-jun/Microchip/WirelessProtocols/P2P/P2P.c
                  __pa_20   0x001276    program     static /Users/sushma/Sushma Workspace/Projects/2013/MLA-Jun-Release-Pkg/Export-mla-jun/Microchip/WirelessProtocols/P2P/P2P.c
                  __pa_21   0x00128e    program     static /Users/sushma/Sushma Workspace/Projects/2013/MLA-Jun-Release-Pkg/Export-mla-jun/Microchip/WirelessProtocols/P2P/P2P.c
                  __pa_22   0x0012a6    program     static /Users/sushma/Sushma Workspace/Projects/2013/MLA-Jun-Release-Pkg/Export-mla-jun/Microchip/WirelessProtocols/P2P/P2P.c
                  __pa_23   0x0012b0    program     static /Users/sushma/Sushma Workspace/Projects/2013/MLA-Jun-Release-Pkg/Export-mla-jun/Microchip/WirelessProtocols/P2P/P2P.c
                  __pa_24   0x0012b8    program     static /Users/sushma/Sushma Workspace/Projects/2013/MLA-Jun-Release-Pkg/Export-mla-jun/Microchip/WirelessProtocols/P2P/P2P.c
                  __pa_25   0x0012c4    program     static /Users/sushma/Sushma Workspace/Projects/2013/MLA-Jun-Release-Pkg/Export-mla-jun/Microchip/WirelessProtocols/P2P/P2P.c
                  __pa_26   0x0012ca    program     static /Users/sushma/Sushma Workspace/Projects/2013/MLA-Jun-Release-Pkg/Export-mla-jun/Microchip/WirelessProtocols/P2P/P2P.c
                  __pa_27   0x0012e0    program     static /Users/sushma/Sushma Workspace/Projects/2013/MLA-Jun-Release-Pkg/Export-mla-jun/Microchip/WirelessProtocols/P2P/P2P.c
                  __pa_28   0x0012e8    program     static /Users/sushma/Sushma Workspace/Projects/2013/MLA-Jun-Release-Pkg/Export-mla-jun/Microchip/WirelessProtocols/P2P/P2P.c
                  __pa_29   0x0012f4    program     static /Users/sushma/Sushma Workspace/Projects/2013/MLA-Jun-Release-Pkg/Export-mla-jun/Microchip/WirelessProtocols/P2P/P2P.c
                  __pa_30   0x001304    program     static /Users/sushma/Sushma Workspace/Projects/2013/MLA-Jun-Release-Pkg/Export-mla-jun/Microchip/WirelessProtocols/P2P/P2P.c
                  __pa_31   0x00130c    program     static /Users/sushma/Sushma Workspace/Projects/2013/MLA-Jun-Release-Pkg/Export-mla-jun/Microchip/WirelessProtocols/P2P/P2P.c
                  __pa_32   0x001318    program     static /Users/sushma/Sushma Workspace/Projects/2013/MLA-Jun-Release-Pkg/Export-mla-jun/Microchip/WirelessProtocols/P2P/P2P.c
                  __pa_33   0x001326    program     static /Users/sushma/Sushma Workspace/Projects/2013/MLA-Jun-Release-Pkg/Export-mla-jun/Microchip/WirelessProtocols/P2P/P2P.c
                  __pa_34   0x00132c    program     static /Users/sushma/Sushma Workspace/Projects/2013/MLA-Jun-Release-Pkg/Export-mla-jun/Microchip/WirelessProtocols/P2P/P2P.c
                  __pa_35   0x00133a    program     static /Users/sushma/Sushma Workspace/Projects/2013/MLA-Jun-Release-Pkg/Export-mla-jun/Microchip/WirelessProtocols/P2P/P2P.c
                  __pa_36   0x00134c    program     static /Users/sushma/Sushma Workspace/Projects/2013/MLA-Jun-Release-Pkg/Export-mla-jun/Microchip/WirelessProtocols/P2P/P2P.c
                  __pa_37   0x001358    program     static /Users/sushma/Sushma Workspace/Projects/2013/MLA-Jun-Release-Pkg/Export-mla-jun/Microchip/WirelessProtocols/P2P/P2P.c
                  __pa_38   0x001362    program     static /Users/sushma/Sushma Workspace/Projects/2013/MLA-Jun-Release-Pkg/Export-mla-jun/Microchip/WirelessProtocols/P2P/P2P.c
                  __pa_39   0x00136a    program     static /Users/sushma/Sushma Workspace/Projects/2013/MLA-Jun-Release-Pkg/Export-mla-jun/Microchip/WirelessProtocols/P2P/P2P.c
                  __pa_40   0x00137a    program     static /Users/sushma/Sushma Workspace/Projects/2013/MLA-Jun-Release-Pkg/Export-mla-jun/Microchip/WirelessProtocols/P2P/P2P.c
                  __pa_41   0x001382    program     static /Users/sushma/Sushma Workspace/Projects/2013/MLA-Jun-Release-Pkg/Export-mla-jun/Microchip/WirelessProtocols/P2P/P2P.c
                  __pa_42   0x001392    program     static /Users/sushma/Sushma Workspace/Projects/2013/MLA-Jun-Release-Pkg/Export-mla-jun/Microchip/WirelessProtocols/P2P/P2P.c
                  __pa_43   0x00139c    program     static /Users/sushma/Sushma Workspace/Projects/2013/MLA-Jun-Release-Pkg/Export-mla-jun/Microchip/WirelessProtocols/P2P/P2P.c
                  __pa_44   0x0013aa    program     static /Users/sushma/Sushma Workspace/Projects/2013/MLA-Jun-Release-Pkg/Export-mla-jun/Microchip/WirelessProtocols/P2P/P2P.c
                  __pa_45   0x0013b8    program     static /Users/sushma/Sushma Workspace/Projects/2013/MLA-Jun-Release-Pkg/Export-mla-jun/Microchip/WirelessProtocols/P2P/P2P.c
                  __pa_46   0x0013c2    program     static /Users/sushma/Sushma Workspace/Projects/2013/MLA-Jun-Release-Pkg/Export-mla-jun/Microchip/WirelessProtocols/P2P/P2P.c
              __tmplbl_63   0x0013cc    program     static                          
              __tmplbl_62   0x0013cc    program     static                          
              __tmplbl_60   0x0013cc    program     static                          
                  __pa_47   0x0013cc    program     static /Users/sushma/Sushma Workspace/Projects/2013/MLA-Jun-Release-Pkg/Export-mla-jun/Microchip/WirelessProtocols/P2P/P2P.c
              __tmplbl_61   0x0013d4    program     static                          
                  __pa_48   0x0013d4    program     static /Users/sushma/Sushma Workspace/Projects/2013/MLA-Jun-Release-Pkg/Export-mla-jun/Microchip/WirelessProtocols/P2P/P2P.c
                  __pa_49   0x0013dc    program     static /Users/sushma/Sushma Workspace/Projects/2013/MLA-Jun-Release-Pkg/Export-mla-jun/Microchip/WirelessProtocols/P2P/P2P.c
                  __pa_50   0x0013e4    program     static /Users/sushma/Sushma Workspace/Projects/2013/MLA-Jun-Release-Pkg/Export-mla-jun/Microchip/WirelessProtocols/P2P/P2P.c
                  __pa_51   0x0013ec    program     static /Users/sushma/Sushma Workspace/Projects/2013/MLA-Jun-Release-Pkg/Export-mla-jun/Microchip/WirelessProtocols/P2P/P2P.c
                  __pa_52   0x0013f2    program     static /Users/sushma/Sushma Workspace/Projects/2013/MLA-Jun-Release-Pkg/Export-mla-jun/Microchip/WirelessProtocols/P2P/P2P.c
                  __pa_53   0x001400    program     static /Users/sushma/Sushma Workspace/Projects/2013/MLA-Jun-Release-Pkg/Export-mla-jun/Microchip/WirelessProtocols/P2P/P2P.c
                  __pa_54   0x001408    program     static /Users/sushma/Sushma Workspace/Projects/2013/MLA-Jun-Release-Pkg/Export-mla-jun/Microchip/WirelessProtocols/P2P/P2P.c
                  __pa_55   0x00141c    program     static /Users/sushma/Sushma Workspace/Projects/2013/MLA-Jun-Release-Pkg/Export-mla-jun/Microchip/WirelessProtocols/P2P/P2P.c
                  __pa_56   0x001424    program     static /Users/sushma/Sushma Workspace/Projects/2013/MLA-Jun-Release-Pkg/Export-mla-jun/Microchip/WirelessProtocols/P2P/P2P.c
                  __pa_57   0x00142e    program     static /Users/sushma/Sushma Workspace/Projects/2013/MLA-Jun-Release-Pkg/Export-mla-jun/Microchip/WirelessProtocols/P2P/P2P.c
                  __pa_58   0x001436    program     static /Users/sushma/Sushma Workspace/Projects/2013/MLA-Jun-Release-Pkg/Export-mla-jun/Microchip/WirelessProtocols/P2P/P2P.c
                  __pa_59   0x00143e    program     static /Users/sushma/Sushma Workspace/Projects/2013/MLA-Jun-Release-Pkg/Export-mla-jun/Microchip/WirelessProtocols/P2P/P2P.c
                  __pa_60   0x001446    program     static /Users/sushma/Sushma Workspace/Projects/2013/MLA-Jun-Release-Pkg/Export-mla-jun/Microchip/WirelessProtocols/P2P/P2P.c
                  __pa_61   0x001460    program     static /Users/sushma/Sushma Workspace/Projects/2013/MLA-Jun-Release-Pkg/Export-mla-jun/Microchip/WirelessProtocols/P2P/P2P.c
                  __pa_62   0x00146e    program     static /Users/sushma/Sushma Workspace/Projects/2013/MLA-Jun-Release-Pkg/Export-mla-jun/Microchip/WirelessProtocols/P2P/P2P.c
                  __pa_63   0x001480    program     static /Users/sushma/Sushma Workspace/Projects/2013/MLA-Jun-Release-Pkg/Export-mla-jun/Microchip/WirelessProtocols/P2P/P2P.c
                  __pa_64   0x00148a    program     static /Users/sushma/Sushma Workspace/Projects/2013/MLA-Jun-Release-Pkg/Export-mla-jun/Microchip/WirelessProtocols/P2P/P2P.c
                  __pa_65   0x00149c    program     static /Users/sushma/Sushma Workspace/Projects/2013/MLA-Jun-Release-Pkg/Export-mla-jun/Microchip/WirelessProtocols/P2P/P2P.c
                  __pa_66   0x0014aa    program     static /Users/sushma/Sushma Workspace/Projects/2013/MLA-Jun-Release-Pkg/Export-mla-jun/Microchip/WirelessProtocols/P2P/P2P.c
                  __pa_67   0x0014bc    program     static /Users/sushma/Sushma Workspace/Projects/2013/MLA-Jun-Release-Pkg/Export-mla-jun/Microchip/WirelessProtocols/P2P/P2P.c
                  __pa_68   0x0014cc    program     static /Users/sushma/Sushma Workspace/Projects/2013/MLA-Jun-Release-Pkg/Export-mla-jun/Microchip/WirelessProtocols/P2P/P2P.c
                  __pa_69   0x0014d8    program     static /Users/sushma/Sushma Workspace/Projects/2013/MLA-Jun-Release-Pkg/Export-mla-jun/Microchip/WirelessProtocols/P2P/P2P.c
                  __pa_70   0x0014e6    program     static /Users/sushma/Sushma Workspace/Projects/2013/MLA-Jun-Release-Pkg/Export-mla-jun/Microchip/WirelessProtocols/P2P/P2P.c
                  __pa_71   0x0014f2    program     static /Users/sushma/Sushma Workspace/Projects/2013/MLA-Jun-Release-Pkg/Export-mla-jun/Microchip/WirelessProtocols/P2P/P2P.c
                  __pa_72   0x0014fa    program     static /Users/sushma/Sushma Workspace/Projects/2013/MLA-Jun-Release-Pkg/Export-mla-jun/Microchip/WirelessProtocols/P2P/P2P.c
                  __pa_73   0x001502    program     static /Users/sushma/Sushma Workspace/Projects/2013/MLA-Jun-Release-Pkg/Export-mla-jun/Microchip/WirelessProtocols/P2P/P2P.c
                  __pa_74   0x00150c    program     static /Users/sushma/Sushma Workspace/Projects/2013/MLA-Jun-Release-Pkg/Export-mla-jun/Microchip/WirelessProtocols/P2P/P2P.c
                  __pa_75   0x001512    program     static /Users/sushma/Sushma Workspace/Projects/2013/MLA-Jun-Release-Pkg/Export-mla-jun/Microchip/WirelessProtocols/P2P/P2P.c
                  __pa_76   0x001518    program     static /Users/sushma/Sushma Workspace/Projects/2013/MLA-Jun-Release-Pkg/Export-mla-jun/Microchip/WirelessProtocols/P2P/P2P.c
                  __pa_77   0x001524    program     static /Users/sushma/Sushma Workspace/Projects/2013/MLA-Jun-Release-Pkg/Export-mla-jun/Microchip/WirelessProtocols/P2P/P2P.c
                  __pa_78   0x00152a    program     static /Users/sushma/Sushma Workspace/Projects/2013/MLA-Jun-Release-Pkg/Export-mla-jun/Microchip/WirelessProtocols/P2P/P2P.c
                  __pa_79   0x001532    program     static /Users/sushma/Sushma Workspace/Projects/2013/MLA-Jun-Release-Pkg/Export-mla-jun/Microchip/WirelessProtocols/P2P/P2P.c
                  __pa_80   0x00153e    program     static /Users/sushma/Sushma Workspace/Projects/2013/MLA-Jun-Release-Pkg/Export-mla-jun/Microchip/WirelessProtocols/P2P/P2P.c
                  __pa_81   0x00154c    program     static /Users/sushma/Sushma Workspace/Projects/2013/MLA-Jun-Release-Pkg/Export-mla-jun/Microchip/WirelessProtocols/P2P/P2P.c
                  __pa_82   0x001558    program     static /Users/sushma/Sushma Workspace/Projects/2013/MLA-Jun-Release-Pkg/Export-mla-jun/Microchip/WirelessProtocols/P2P/P2P.c
                  __pa_83   0x001560    program     static /Users/sushma/Sushma Workspace/Projects/2013/MLA-Jun-Release-Pkg/Export-mla-jun/Microchip/WirelessProtocols/P2P/P2P.c
                  __pa_84   0x00156e    program     static /Users/sushma/Sushma Workspace/Projects/2013/MLA-Jun-Release-Pkg/Export-mla-jun/Microchip/WirelessProtocols/P2P/P2P.c
                  __pa_85   0x001576    program     static /Users/sushma/Sushma Workspace/Projects/2013/MLA-Jun-Release-Pkg/Export-mla-jun/Microchip/WirelessProtocols/P2P/P2P.c
                  __pa_86   0x00157e    program     static /Users/sushma/Sushma Workspace/Projects/2013/MLA-Jun-Release-Pkg/Export-mla-jun/Microchip/WirelessProtocols/P2P/P2P.c
                  __pa_87   0x001588    program     static /Users/sushma/Sushma Workspace/Projects/2013/MLA-Jun-Release-Pkg/Export-mla-jun/Microchip/WirelessProtocols/P2P/P2P.c
                  __pa_88   0x001590    program     static /Users/sushma/Sushma Workspace/Projects/2013/MLA-Jun-Release-Pkg/Export-mla-jun/Microchip/WirelessProtocols/P2P/P2P.c
                  __pa_89   0x00159a    program     static /Users/sushma/Sushma Workspace/Projects/2013/MLA-Jun-Release-Pkg/Export-mla-jun/Microchip/WirelessProtocols/P2P/P2P.c
                  __pa_90   0x0015a2    program     static /Users/sushma/Sushma Workspace/Projects/2013/MLA-Jun-Release-Pkg/Export-mla-jun/Microchip/WirelessProtocols/P2P/P2P.c
                  __pa_91   0x0015ac    program     static /Users/sushma/Sushma Workspace/Projects/2013/MLA-Jun-Release-Pkg/Export-mla-jun/Microchip/WirelessProtocols/P2P/P2P.c
                  __pa_92   0x0015b2    program     static /Users/sushma/Sushma Workspace/Projects/2013/MLA-Jun-Release-Pkg/Export-mla-jun/Microchip/WirelessProtocols/P2P/P2P.c
                  __pa_93   0x0015bc    program     static /Users/sushma/Sushma Workspace/Projects/2013/MLA-Jun-Release-Pkg/Export-mla-jun/Microchip/WirelessProtocols/P2P/P2P.c
                  __pa_94   0x0015c6    program     static /Users/sushma/Sushma Workspace/Projects/2013/MLA-Jun-Release-Pkg/Export-mla-jun/Microchip/WirelessProtocols/P2P/P2P.c
                  __pa_95   0x0015d0    program     static /Users/sushma/Sushma Workspace/Projects/2013/MLA-Jun-Release-Pkg/Export-mla-jun/Microchip/WirelessProtocols/P2P/P2P.c
                  __pa_96   0x0015da    program     static /Users/sushma/Sushma Workspace/Projects/2013/MLA-Jun-Release-Pkg/Export-mla-jun/Microchip/WirelessProtocols/P2P/P2P.c
                  __pa_97   0x0015e4    program     static /Users/sushma/Sushma Workspace/Projects/2013/MLA-Jun-Release-Pkg/Export-mla-jun/Microchip/WirelessProtocols/P2P/P2P.c
                  __pa_98   0x0015ee    program     static /Users/sushma/Sushma Workspace/Projects/2013/MLA-Jun-Release-Pkg/Export-mla-jun/Microchip/WirelessProtocols/P2P/P2P.c
                  __pa_99   0x0015f4    program     static /Users/sushma/Sushma Workspace/Projects/2013/MLA-Jun-Release-Pkg/Export-mla-jun/Microchip/WirelessProtocols/P2P/P2P.c
        PHYSetLongRAMAddr   0x0015fc    program     extern /Users/sushma/Sushma Workspace/Projects/2013/MLA-Jun-Release-Pkg/Export-mla-jun/Microchip/Transceivers/MRF24J40/MRF24J40.c
       PHYSetShortRAMAddr   0x001668    program     extern /Users/sushma/Sushma Workspace/Projects/2013/MLA-Jun-Release-Pkg/Export-mla-jun/Microchip/Transceivers/MRF24J40/MRF24J40.c
       PHYGetShortRAMAddr   0x001694    program     extern /Users/sushma/Sushma Workspace/Projects/2013/MLA-Jun-Release-Pkg/Export-mla-jun/Microchip/Transceivers/MRF24J40/MRF24J40.c
        PHYGetLongRAMAddr   0x0016ca    program     extern /Users/sushma/Sushma Workspace/Projects/2013/MLA-Jun-Release-Pkg/Export-mla-jun/Microchip/Transceivers/MRF24J40/MRF24J40.c
             InitMRF24J40   0x001744    program     extern /Users/sushma/Sushma Workspace/Projects/2013/MLA-Jun-Release-Pkg/Export-mla-jun/Microchip/Transceivers/MRF24J40/MRF24J40.c
     MiMAC_ReceivedPacket   0x00189c    program     extern /Users/sushma/Sushma Workspace/Projects/2013/MLA-Jun-Release-Pkg/Export-mla-jun/Microchip/Transceivers/MRF24J40/MRF24J40.c
      MiMAC_DiscardPacket   0x001b08    program     extern /Users/sushma/Sushma Workspace/Projects/2013/MLA-Jun-Release-Pkg/Export-mla-jun/Microchip/Transceivers/MRF24J40/MRF24J40.c
         MiMAC_SendPacket   0x001b18    program     extern /Users/sushma/Sushma Workspace/Projects/2013/MLA-Jun-Release-Pkg/Export-mla-jun/Microchip/Transceivers/MRF24J40/MRF24J40.c
  MiMAC_ChannelAssessment   0x001e06    program     extern /Users/sushma/Sushma Workspace/Projects/2013/MLA-Jun-Release-Pkg/Export-mla-jun/Microchip/Transceivers/MRF24J40/MRF24J40.c
         MiMAC_SetChannel   0x001e2c    program     extern /Users/sushma/Sushma Workspace/Projects/2013/MLA-Jun-Release-Pkg/Export-mla-jun/Microchip/Transceivers/MRF24J40/MRF24J40.c
           MiMAC_SetPower   0x001e68    program     extern /Users/sushma/Sushma Workspace/Projects/2013/MLA-Jun-Release-Pkg/Export-mla-jun/Microchip/Transceivers/MRF24J40/MRF24J40.c
      MiMAC_SetAltAddress   0x001edc    program     extern /Users/sushma/Sushma Workspace/Projects/2013/MLA-Jun-Release-Pkg/Export-mla-jun/Microchip/Transceivers/MRF24J40/MRF24J40.c
               MiMAC_Init   0x001f3e    program     extern /Users/sushma/Sushma Workspace/Projects/2013/MLA-Jun-Release-Pkg/Export-mla-jun/Microchip/Transceivers/MRF24J40/MRF24J40.c
                  HighISR   0x001fb6    program     extern /Users/sushma/Sushma Workspace/Projects/2013/MLA-Jun-Release-Pkg/Export-mla-jun/Microchip/Transceivers/MRF24J40/MRF24J40.c
                   __pa_0   0x002354    program     static /Users/sushma/Sushma Workspace/Projects/2013/MLA-Jun-Release-Pkg/Export-mla-jun/Microchip/Transceivers/MRF24J40/MRF24J40.c
                   __pa_1   0x00235a    program     static /Users/sushma/Sushma Workspace/Projects/2013/MLA-Jun-Release-Pkg/Export-mla-jun/Microchip/Transceivers/MRF24J40/MRF24J40.c
                   __pa_2   0x002366    program     static /Users/sushma/Sushma Workspace/Projects/2013/MLA-Jun-Release-Pkg/Export-mla-jun/Microchip/Transceivers/MRF24J40/MRF24J40.c
                   __pa_3   0x002374    program     static /Users/sushma/Sushma Workspace/Projects/2013/MLA-Jun-Release-Pkg/Export-mla-jun/Microchip/Transceivers/MRF24J40/MRF24J40.c
                   __pa_4   0x00237e    program     static /Users/sushma/Sushma Workspace/Projects/2013/MLA-Jun-Release-Pkg/Export-mla-jun/Microchip/Transceivers/MRF24J40/MRF24J40.c
                   __pa_5   0x002396    program     static /Users/sushma/Sushma Workspace/Projects/2013/MLA-Jun-Release-Pkg/Export-mla-jun/Microchip/Transceivers/MRF24J40/MRF24J40.c
                   __pa_6   0x00239c    program     static /Users/sushma/Sushma Workspace/Projects/2013/MLA-Jun-Release-Pkg/Export-mla-jun/Microchip/Transceivers/MRF24J40/MRF24J40.c
                   __pa_7   0x0023a6    program     static /Users/sushma/Sushma Workspace/Projects/2013/MLA-Jun-Release-Pkg/Export-mla-jun/Microchip/Transceivers/MRF24J40/MRF24J40.c
                   __pa_8   0x0023b2    program     static /Users/sushma/Sushma Workspace/Projects/2013/MLA-Jun-Release-Pkg/Export-mla-jun/Microchip/Transceivers/MRF24J40/MRF24J40.c
                   __pa_9   0x0023bc    program     static /Users/sushma/Sushma Workspace/Projects/2013/MLA-Jun-Release-Pkg/Export-mla-jun/Microchip/Transceivers/MRF24J40/MRF24J40.c
                  __pa_10   0x0023c4    program     static /Users/sushma/Sushma Workspace/Projects/2013/MLA-Jun-Release-Pkg/Export-mla-jun/Microchip/Transceivers/MRF24J40/MRF24J40.c
                  __pa_11   0x0023d0    program     static /Users/sushma/Sushma Workspace/Projects/2013/MLA-Jun-Release-Pkg/Export-mla-jun/Microchip/Transceivers/MRF24J40/MRF24J40.c
                  __pa_12   0x0023f0    program     static /Users/sushma/Sushma Workspace/Projects/2013/MLA-Jun-Release-Pkg/Export-mla-jun/Microchip/Transceivers/MRF24J40/MRF24J40.c
                  __pa_13   0x002400    program     static /Users/sushma/Sushma Workspace/Projects/2013/MLA-Jun-Release-Pkg/Export-mla-jun/Microchip/Transceivers/MRF24J40/MRF24J40.c
                  __pa_14   0x002408    program     static /Users/sushma/Sushma Workspace/Projects/2013/MLA-Jun-Release-Pkg/Export-mla-jun/Microchip/Transceivers/MRF24J40/MRF24J40.c
                  __pa_15   0x002422    program     static /Users/sushma/Sushma Workspace/Projects/2013/MLA-Jun-Release-Pkg/Export-mla-jun/Microchip/Transceivers/MRF24J40/MRF24J40.c
                  __pa_16   0x00242a    program     static /Users/sushma/Sushma Workspace/Projects/2013/MLA-Jun-Release-Pkg/Export-mla-jun/Microchip/Transceivers/MRF24J40/MRF24J40.c
                  __pa_17   0x00243a    program     static /Users/sushma/Sushma Workspace/Projects/2013/MLA-Jun-Release-Pkg/Export-mla-jun/Microchip/Transceivers/MRF24J40/MRF24J40.c
                  __pa_18   0x002450    program     static /Users/sushma/Sushma Workspace/Projects/2013/MLA-Jun-Release-Pkg/Export-mla-jun/Microchip/Transceivers/MRF24J40/MRF24J40.c
                  __pa_19   0x00245a    program     static /Users/sushma/Sushma Workspace/Projects/2013/MLA-Jun-Release-Pkg/Export-mla-jun/Microchip/Transceivers/MRF24J40/MRF24J40.c
                  __pa_20   0x002466    program     static /Users/sushma/Sushma Workspace/Projects/2013/MLA-Jun-Release-Pkg/Export-mla-jun/Microchip/Transceivers/MRF24J40/MRF24J40.c
                  __pa_21   0x002478    program     static /Users/sushma/Sushma Workspace/Projects/2013/MLA-Jun-Release-Pkg/Export-mla-jun/Microchip/Transceivers/MRF24J40/MRF24J40.c
                  __pa_22   0x00248a    program     static /Users/sushma/Sushma Workspace/Projects/2013/MLA-Jun-Release-Pkg/Export-mla-jun/Microchip/Transceivers/MRF24J40/MRF24J40.c
                  __pa_23   0x002496    program     static /Users/sushma/Sushma Workspace/Projects/2013/MLA-Jun-Release-Pkg/Export-mla-jun/Microchip/Transceivers/MRF24J40/MRF24J40.c
              __tmplbl_29   0x002496    program     static                          
              __tmplbl_28   0x002496    program     static                          
                  __pa_24   0x00249e    program     static /Users/sushma/Sushma Workspace/Projects/2013/MLA-Jun-Release-Pkg/Export-mla-jun/Microchip/Transceivers/MRF24J40/MRF24J40.c
                  __pa_25   0x0024aa    program     static /Users/sushma/Sushma Workspace/Projects/2013/MLA-Jun-Release-Pkg/Export-mla-jun/Microchip/Transceivers/MRF24J40/MRF24J40.c
                  __pa_26   0x0024b2    program     static /Users/sushma/Sushma Workspace/Projects/2013/MLA-Jun-Release-Pkg/Export-mla-jun/Microchip/Transceivers/MRF24J40/MRF24J40.c
                  __pa_27   0x0024c0    program     static /Users/sushma/Sushma Workspace/Projects/2013/MLA-Jun-Release-Pkg/Export-mla-jun/Microchip/Transceivers/MRF24J40/MRF24J40.c
              __tmplbl_30   0x0024ce    program     static                          
                  __pa_28   0x0024ce    program     static /Users/sushma/Sushma Workspace/Projects/2013/MLA-Jun-Release-Pkg/Export-mla-jun/Microchip/Transceivers/MRF24J40/MRF24J40.c
              __tmplbl_31   0x0024ce    program     static                          
                  __pa_29   0x0024d6    program     static /Users/sushma/Sushma Workspace/Projects/2013/MLA-Jun-Release-Pkg/Export-mla-jun/Microchip/Transceivers/MRF24J40/MRF24J40.c
                  __pa_30   0x0024de    program     static /Users/sushma/Sushma Workspace/Projects/2013/MLA-Jun-Release-Pkg/Export-mla-jun/Microchip/Transceivers/MRF24J40/MRF24J40.c
                  __pa_31   0x0024ec    program     static /Users/sushma/Sushma Workspace/Projects/2013/MLA-Jun-Release-Pkg/Export-mla-jun/Microchip/Transceivers/MRF24J40/MRF24J40.c
                  __pa_32   0x0024fc    program     static /Users/sushma/Sushma Workspace/Projects/2013/MLA-Jun-Release-Pkg/Export-mla-jun/Microchip/Transceivers/MRF24J40/MRF24J40.c
                  __pa_33   0x002508    program     static /Users/sushma/Sushma Workspace/Projects/2013/MLA-Jun-Release-Pkg/Export-mla-jun/Microchip/Transceivers/MRF24J40/MRF24J40.c
                  __pa_34   0x002516    program     static /Users/sushma/Sushma Workspace/Projects/2013/MLA-Jun-Release-Pkg/Export-mla-jun/Microchip/Transceivers/MRF24J40/MRF24J40.c
                  __pa_35   0x002526    program     static /Users/sushma/Sushma Workspace/Projects/2013/MLA-Jun-Release-Pkg/Export-mla-jun/Microchip/Transceivers/MRF24J40/MRF24J40.c
                  __pa_36   0x002534    program     static /Users/sushma/Sushma Workspace/Projects/2013/MLA-Jun-Release-Pkg/Export-mla-jun/Microchip/Transceivers/MRF24J40/MRF24J40.c
                  __pa_37   0x002540    program     static /Users/sushma/Sushma Workspace/Projects/2013/MLA-Jun-Release-Pkg/Export-mla-jun/Microchip/Transceivers/MRF24J40/MRF24J40.c
                  __pa_38   0x00254c    program     static /Users/sushma/Sushma Workspace/Projects/2013/MLA-Jun-Release-Pkg/Export-mla-jun/Microchip/Transceivers/MRF24J40/MRF24J40.c
                  __pa_39   0x002556    program     static /Users/sushma/Sushma Workspace/Projects/2013/MLA-Jun-Release-Pkg/Export-mla-jun/Microchip/Transceivers/MRF24J40/MRF24J40.c
                  __pa_40   0x002560    program     static /Users/sushma/Sushma Workspace/Projects/2013/MLA-Jun-Release-Pkg/Export-mla-jun/Microchip/Transceivers/MRF24J40/MRF24J40.c
                  __pa_41   0x00256e    program     static /Users/sushma/Sushma Workspace/Projects/2013/MLA-Jun-Release-Pkg/Export-mla-jun/Microchip/Transceivers/MRF24J40/MRF24J40.c
                  __pa_42   0x002576    program     static /Users/sushma/Sushma Workspace/Projects/2013/MLA-Jun-Release-Pkg/Export-mla-jun/Microchip/Transceivers/MRF24J40/MRF24J40.c
                  __pa_43   0x00257e    program     static /Users/sushma/Sushma Workspace/Projects/2013/MLA-Jun-Release-Pkg/Export-mla-jun/Microchip/Transceivers/MRF24J40/MRF24J40.c
                  __pa_44   0x002584    program     static /Users/sushma/Sushma Workspace/Projects/2013/MLA-Jun-Release-Pkg/Export-mla-jun/Microchip/Transceivers/MRF24J40/MRF24J40.c
                  __pa_45   0x00258c    program     static /Users/sushma/Sushma Workspace/Projects/2013/MLA-Jun-Release-Pkg/Export-mla-jun/Microchip/Transceivers/MRF24J40/MRF24J40.c
                  __pa_46   0x002592    program     static /Users/sushma/Sushma Workspace/Projects/2013/MLA-Jun-Release-Pkg/Export-mla-jun/Microchip/Transceivers/MRF24J40/MRF24J40.c
                  __pa_47   0x00259a    program     static /Users/sushma/Sushma Workspace/Projects/2013/MLA-Jun-Release-Pkg/Export-mla-jun/Microchip/Transceivers/MRF24J40/MRF24J40.c
                  __pa_48   0x0025a0    program     static /Users/sushma/Sushma Workspace/Projects/2013/MLA-Jun-Release-Pkg/Export-mla-jun/Microchip/Transceivers/MRF24J40/MRF24J40.c
                  __pa_49   0x0025a8    program     static /Users/sushma/Sushma Workspace/Projects/2013/MLA-Jun-Release-Pkg/Export-mla-jun/Microchip/Transceivers/MRF24J40/MRF24J40.c
                  __pa_50   0x0025b2    program     static /Users/sushma/Sushma Workspace/Projects/2013/MLA-Jun-Release-Pkg/Export-mla-jun/Microchip/Transceivers/MRF24J40/MRF24J40.c
                  __pa_51   0x0025b8    program     static /Users/sushma/Sushma Workspace/Projects/2013/MLA-Jun-Release-Pkg/Export-mla-jun/Microchip/Transceivers/MRF24J40/MRF24J40.c
                  __pa_52   0x0025be    program     static /Users/sushma/Sushma Workspace/Projects/2013/MLA-Jun-Release-Pkg/Export-mla-jun/Microchip/Transceivers/MRF24J40/MRF24J40.c
                  __pa_53   0x0025c6    program     static /Users/sushma/Sushma Workspace/Projects/2013/MLA-Jun-Release-Pkg/Export-mla-jun/Microchip/Transceivers/MRF24J40/MRF24J40.c
                  __pa_54   0x0025d0    program     static /Users/sushma/Sushma Workspace/Projects/2013/MLA-Jun-Release-Pkg/Export-mla-jun/Microchip/Transceivers/MRF24J40/MRF24J40.c
                  __pa_55   0x0025da    program     static /Users/sushma/Sushma Workspace/Projects/2013/MLA-Jun-Release-Pkg/Export-mla-jun/Microchip/Transceivers/MRF24J40/MRF24J40.c
            s_put_n_chars   0x0025e0    program     static C:\MCC18\v3_39\src\extended\stdclib\vfprintf.c
                 vfprintf   0x002612    program     extern C:\MCC18\v3_39\src\extended\stdclib\vfprintf.c
                   __pa_0   0x002ca2    program     static C:\MCC18\v3_39\src\extended\stdclib\vfprintf.c
                   __pa_1   0x002cb0    program     static C:\MCC18\v3_39\src\extended\stdclib\vfprintf.c
                   __pa_2   0x002cc0    program     static C:\MCC18\v3_39\src\extended\stdclib\vfprintf.c
                   __pa_3   0x002ccc    program     static C:\MCC18\v3_39\src\extended\stdclib\vfprintf.c
                   __pa_4   0x002ce0    program     static C:\MCC18\v3_39\src\extended\stdclib\vfprintf.c
                   __pa_5   0x002cf2    program     static C:\MCC18\v3_39\src\extended\stdclib\vfprintf.c
                   __pa_6   0x002d02    program     static C:\MCC18\v3_39\src\extended\stdclib\vfprintf.c
                   __pa_7   0x002d14    program     static C:\MCC18\v3_39\src\extended\stdclib\vfprintf.c
                   __pa_8   0x002d20    program     static C:\MCC18\v3_39\src\extended\stdclib\vfprintf.c
                   __pa_9   0x002d32    program     static C:\MCC18\v3_39\src\extended\stdclib\vfprintf.c
                  __pa_10   0x002d3e    program     static C:\MCC18\v3_39\src\extended\stdclib\vfprintf.c
                  __pa_11   0x002d4e    program     static C:\MCC18\v3_39\src\extended\stdclib\vfprintf.c
                  __pa_12   0x002d5e    program     static C:\MCC18\v3_39\src\extended\stdclib\vfprintf.c
                  __pa_13   0x002d6c    program     static C:\MCC18\v3_39\src\extended\stdclib\vfprintf.c
                  __pa_14   0x002d8a    program     static C:\MCC18\v3_39\src\extended\stdclib\vfprintf.c
                  __pa_15   0x002d94    program     static C:\MCC18\v3_39\src\extended\stdclib\vfprintf.c
                  __pa_16   0x002d9a    program     static C:\MCC18\v3_39\src\extended\stdclib\vfprintf.c
                  __pa_17   0x002daa    program     static C:\MCC18\v3_39\src\extended\stdclib\vfprintf.c
                  __pa_18   0x002db6    program     static C:\MCC18\v3_39\src\extended\stdclib\vfprintf.c
                  __pa_19   0x002dc4    program     static C:\MCC18\v3_39\src\extended\stdclib\vfprintf.c
                  __pa_20   0x002dce    program     static C:\MCC18\v3_39\src\extended\stdclib\vfprintf.c
                  __pa_21   0x002dd8    program     static C:\MCC18\v3_39\src\extended\stdclib\vfprintf.c
                  __pa_22   0x002de2    program     static C:\MCC18\v3_39\src\extended\stdclib\vfprintf.c
                  __pa_23   0x002df0    program     static C:\MCC18\v3_39\src\extended\stdclib\vfprintf.c
              MainDisplay   0x002df6    program     extern /Users/sushma/Sushma Workspace/Projects/2013/MLA-Jun-Release-Pkg/Export-mla-jun/Combo/MiWi Protocol to WiFi Wireless Demo Kit/MiWi_Demo_Board/Demo.c
                     main   0x002f40    program     extern /Users/sushma/Sushma Workspace/Projects/2013/MLA-Jun-Release-Pkg/Export-mla-jun/Combo/MiWi Protocol to WiFi Wireless Demo Kit/MiWi_Demo_Board/Demo.c
                   __pa_0   0x0032ea    program     static /Users/sushma/Sushma Workspace/Projects/2013/MLA-Jun-Release-Pkg/Export-mla-jun/Combo/MiWi Protocol to WiFi Wireless Demo Kit/MiWi_Demo_Board/Demo.c
                   __pa_1   0x0032fe    program     static /Users/sushma/Sushma Workspace/Projects/2013/MLA-Jun-Release-Pkg/Export-mla-jun/Combo/MiWi Protocol to WiFi Wireless Demo Kit/MiWi_Demo_Board/Demo.c
                   __pa_2   0x003304    program     static /Users/sushma/Sushma Workspace/Projects/2013/MLA-Jun-Release-Pkg/Export-mla-jun/Combo/MiWi Protocol to WiFi Wireless Demo Kit/MiWi_Demo_Board/Demo.c
                   __pa_3   0x003328    program     static /Users/sushma/Sushma Workspace/Projects/2013/MLA-Jun-Release-Pkg/Export-mla-jun/Combo/MiWi Protocol to WiFi Wireless Demo Kit/MiWi_Demo_Board/Demo.c
                   __pa_4   0x003342    program     static /Users/sushma/Sushma Workspace/Projects/2013/MLA-Jun-Release-Pkg/Export-mla-jun/Combo/MiWi Protocol to WiFi Wireless Demo Kit/MiWi_Demo_Board/Demo.c
                   __pa_5   0x003358    program     static /Users/sushma/Sushma Workspace/Projects/2013/MLA-Jun-Release-Pkg/Export-mla-jun/Combo/MiWi Protocol to WiFi Wireless Demo Kit/MiWi_Demo_Board/Demo.c
                   __pa_6   0x003362    program     static /Users/sushma/Sushma Workspace/Projects/2013/MLA-Jun-Release-Pkg/Export-mla-jun/Combo/MiWi Protocol to WiFi Wireless Demo Kit/MiWi_Demo_Board/Demo.c
                   __pa_7   0x003370    program     static /Users/sushma/Sushma Workspace/Projects/2013/MLA-Jun-Release-Pkg/Export-mla-jun/Combo/MiWi Protocol to WiFi Wireless Demo Kit/MiWi_Demo_Board/Demo.c
                   __pa_8   0x003382    program     static /Users/sushma/Sushma Workspace/Projects/2013/MLA-Jun-Release-Pkg/Export-mla-jun/Combo/MiWi Protocol to WiFi Wireless Demo Kit/MiWi_Demo_Board/Demo.c
                   __pa_9   0x003392    program     static /Users/sushma/Sushma Workspace/Projects/2013/MLA-Jun-Release-Pkg/Export-mla-jun/Combo/MiWi Protocol to WiFi Wireless Demo Kit/MiWi_Demo_Board/Demo.c
                  __pa_10   0x00339c    program     static /Users/sushma/Sushma Workspace/Projects/2013/MLA-Jun-Release-Pkg/Export-mla-jun/Combo/MiWi Protocol to WiFi Wireless Demo Kit/MiWi_Demo_Board/Demo.c
                  __pa_11   0x0033a8    program     static /Users/sushma/Sushma Workspace/Projects/2013/MLA-Jun-Release-Pkg/Export-mla-jun/Combo/MiWi Protocol to WiFi Wireless Demo Kit/MiWi_Demo_Board/Demo.c
                  __pa_12   0x0033ae    program     static /Users/sushma/Sushma Workspace/Projects/2013/MLA-Jun-Release-Pkg/Export-mla-jun/Combo/MiWi Protocol to WiFi Wireless Demo Kit/MiWi_Demo_Board/Demo.c
                  __pa_13   0x0033b4    program     static /Users/sushma/Sushma Workspace/Projects/2013/MLA-Jun-Release-Pkg/Export-mla-jun/Combo/MiWi Protocol to WiFi Wireless Demo Kit/MiWi_Demo_Board/Demo.c
                  __pa_14   0x0033c0    program     static /Users/sushma/Sushma Workspace/Projects/2013/MLA-Jun-Release-Pkg/Export-mla-jun/Combo/MiWi Protocol to WiFi Wireless Demo Kit/MiWi_Demo_Board/Demo.c
                  __pa_15   0x0033ca    program     static /Users/sushma/Sushma Workspace/Projects/2013/MLA-Jun-Release-Pkg/Export-mla-jun/Combo/MiWi Protocol to WiFi Wireless Demo Kit/MiWi_Demo_Board/Demo.c
                  NVMRead   0x0033d2    program     extern /Users/sushma/Sushma Workspace/Projects/2013/MLA-Jun-Release-Pkg/Export-mla-jun/Combo/MiWi Protocol to WiFi Wireless Demo Kit/MiWi_Demo_Board/LocalFiles/NVM.c
                 NVMWrite   0x003428    program     extern /Users/sushma/Sushma Workspace/Projects/2013/MLA-Jun-Release-Pkg/Export-mla-jun/Combo/MiWi Protocol to WiFi Wireless Demo Kit/MiWi_Demo_Board/LocalFiles/NVM.c
                 NVMalloc   0x0034c2    program     extern /Users/sushma/Sushma Workspace/Projects/2013/MLA-Jun-Release-Pkg/Export-mla-jun/Combo/MiWi Protocol to WiFi Wireless Demo Kit/MiWi_Demo_Board/LocalFiles/NVM.c
                  NVMInit   0x00350e    program     extern /Users/sushma/Sushma Workspace/Projects/2013/MLA-Jun-Release-Pkg/Export-mla-jun/Combo/MiWi Protocol to WiFi Wireless Demo Kit/MiWi_Demo_Board/LocalFiles/NVM.c
                   __pa_0   0x003564    program     static /Users/sushma/Sushma Workspace/Projects/2013/MLA-Jun-Release-Pkg/Export-mla-jun/Combo/MiWi Protocol to WiFi Wireless Demo Kit/MiWi_Demo_Board/LocalFiles/NVM.c
                   __pa_1   0x003570    program     static /Users/sushma/Sushma Workspace/Projects/2013/MLA-Jun-Release-Pkg/Export-mla-jun/Combo/MiWi Protocol to WiFi Wireless Demo Kit/MiWi_Demo_Board/LocalFiles/NVM.c
                   __pa_2   0x00357e    program     static /Users/sushma/Sushma Workspace/Projects/2013/MLA-Jun-Release-Pkg/Export-mla-jun/Combo/MiWi Protocol to WiFi Wireless Demo Kit/MiWi_Demo_Board/LocalFiles/NVM.c
                   __pa_3   0x003588    program     static /Users/sushma/Sushma Workspace/Projects/2013/MLA-Jun-Release-Pkg/Export-mla-jun/Combo/MiWi Protocol to WiFi Wireless Demo Kit/MiWi_Demo_Board/LocalFiles/NVM.c
                   __pa_4   0x003598    program     static /Users/sushma/Sushma Workspace/Projects/2013/MLA-Jun-Release-Pkg/Export-mla-jun/Combo/MiWi Protocol to WiFi Wireless Demo Kit/MiWi_Demo_Board/LocalFiles/NVM.c
                 SETUPSTK   0x0035a2    program     static C:\MCC18\v3_39\src\extended\math\div08u.asm
                 __div08u   0x0035ba    program     extern C:\MCC18\v3_39\src\extended\math\div08u.asm
                 __mod08u   0x0035c0    program     extern C:\MCC18\v3_39\src\extended\math\div08u.asm
            _early08uexit   0x0035c4    program     extern C:\MCC18\v3_39\src\extended\math\div08u.asm
                divmod08u   0x0035c6    program     static C:\MCC18\v3_39\src\extended\math\div08u.asm
                     loop   0x0035ce    program     static C:\MCC18\v3_39\src\extended\math\div08u.asm
                  endloop   0x0035dc    program     static C:\MCC18\v3_39\src\extended\math\div08u.asm
                  RESTORE   0x0035e4    program     static C:\MCC18\v3_39\src\extended\math\div08u.asm
                  __mul32   0x0035fe    program     extern C:\MCC18\v3_39\src\extended\math\mul32.asm
                 SETUPSTK   0x0036a0    program     static C:\MCC18\v3_39\src\extended\math\div32u.asm
                 __div32u   0x0036b8    program     extern C:\MCC18\v3_39\src\extended\math\div32u.asm
                 __mod32u   0x0036be    program     extern C:\MCC18\v3_39\src\extended\math\div32u.asm
            _early32uexit   0x0036c2    program     extern C:\MCC18\v3_39\src\extended\math\div32u.asm
                divmod32u   0x0036c4    program     static C:\MCC18\v3_39\src\extended\math\div32u.asm
                     loop   0x0036d2    program     static C:\MCC18\v3_39\src\extended\math\div32u.asm
                   _false   0x003706    program     static C:\MCC18\v3_39\src\extended\math\div32u.asm
              RETQUOTIENT   0x003726    program     static C:\MCC18\v3_39\src\extended\math\div32u.asm
                  RESTORE   0x003736    program     static C:\MCC18\v3_39\src\extended\math\div32u.asm
                Delay10us   0x003744    program     extern /Users/sushma/Sushma Workspace/Projects/2013/MLA-Jun-Release-Pkg/Export-mla-jun/Microchip/Common/TimeDelay.c
         ___else_lbl00006   0x003754    program     static                          
        ___while_lbl00001   0x0037c8    program     static                          
         ___else_lbl00004   0x0037c8    program     static                          
       ___return_lbl00000   0x0037fc    program     static                          
        ___while_lbl00002   0x0037fc    program     static                          
           ___if_lbl00005   0x0037fc    program     static                          
           ___if_lbl00003   0x0037fc    program     static                          
                  DelayMs   0x003804    program     extern /Users/sushma/Sushma Workspace/Projects/2013/MLA-Jun-Release-Pkg/Export-mla-jun/Microchip/Common/TimeDelay.c
        ___while_lbl00008   0x003884    program     static                          
         ___else_lbl00011   0x003884    program     static                          
        ___while_lbl00009   0x0038b8    program     static                          
       ___return_lbl00007   0x0038b8    program     static                          
           ___if_lbl00010   0x0038b8    program     static                          
             LCD_WriteCmd   0x0038c0    program     extern /Users/sushma/Sushma Workspace/Projects/2013/MLA-Jun-Release-Pkg/Export-mla-jun/Combo/MiWi Protocol to WiFi Wireless Demo Kit/MiWi_Demo_Board/LCD_ST7032.c
            LCD_WriteData   0x0038ca    program     extern /Users/sushma/Sushma Workspace/Projects/2013/MLA-Jun-Release-Pkg/Export-mla-jun/Combo/MiWi Protocol to WiFi Wireless Demo Kit/MiWi_Demo_Board/LCD_ST7032.c
                  LCDInit   0x0038d4    program     extern /Users/sushma/Sushma Workspace/Projects/2013/MLA-Jun-Release-Pkg/Export-mla-jun/Combo/MiWi Protocol to WiFi Wireless Demo Kit/MiWi_Demo_Board/LCD_ST7032.c
                 LCDErase   0x003918    program     extern /Users/sushma/Sushma Workspace/Projects/2013/MLA-Jun-Release-Pkg/Export-mla-jun/Combo/MiWi Protocol to WiFi Wireless Demo Kit/MiWi_Demo_Board/LCD_ST7032.c
           LCDBacklightON   0x003938    program     extern /Users/sushma/Sushma Workspace/Projects/2013/MLA-Jun-Release-Pkg/Export-mla-jun/Combo/MiWi Protocol to WiFi Wireless Demo Kit/MiWi_Demo_Board/LCD_ST7032.c
          LCDBacklightOFF   0x00393c    program     extern /Users/sushma/Sushma Workspace/Projects/2013/MLA-Jun-Release-Pkg/Export-mla-jun/Combo/MiWi Protocol to WiFi Wireless Demo Kit/MiWi_Demo_Board/LCD_ST7032.c
                LCDUpdate   0x003940    program     extern /Users/sushma/Sushma Workspace/Projects/2013/MLA-Jun-Release-Pkg/Export-mla-jun/Combo/MiWi Protocol to WiFi Wireless Demo Kit/MiWi_Demo_Board/LCD_ST7032.c
               LCDDisplay   0x00399c    program     extern /Users/sushma/Sushma Workspace/Projects/2013/MLA-Jun-Release-Pkg/Export-mla-jun/Combo/MiWi Protocol to WiFi Wireless Demo Kit/MiWi_Demo_Board/LCD_ST7032.c
                   __pa_0   0x0039e0    program     static /Users/sushma/Sushma Workspace/Projects/2013/MLA-Jun-Release-Pkg/Export-mla-jun/Combo/MiWi Protocol to WiFi Wireless Demo Kit/MiWi_Demo_Board/LCD_ST7032.c
                   __pa_1   0x0039e8    program     static /Users/sushma/Sushma Workspace/Projects/2013/MLA-Jun-Release-Pkg/Export-mla-jun/Combo/MiWi Protocol to WiFi Wireless Demo Kit/MiWi_Demo_Board/LCD_ST7032.c
                   __pa_2   0x0039f4    program     static /Users/sushma/Sushma Workspace/Projects/2013/MLA-Jun-Release-Pkg/Export-mla-jun/Combo/MiWi Protocol to WiFi Wireless Demo Kit/MiWi_Demo_Board/LCD_ST7032.c
                   __pa_3   0x003a02    program     static /Users/sushma/Sushma Workspace/Projects/2013/MLA-Jun-Release-Pkg/Export-mla-jun/Combo/MiWi Protocol to WiFi Wireless Demo Kit/MiWi_Demo_Board/LCD_ST7032.c
                   __pa_4   0x003a16    program     static /Users/sushma/Sushma Workspace/Projects/2013/MLA-Jun-Release-Pkg/Export-mla-jun/Combo/MiWi Protocol to WiFi Wireless Demo Kit/MiWi_Demo_Board/LCD_ST7032.c
                BoardInit   0x003a20    program     extern /Users/sushma/Sushma Workspace/Projects/2013/MLA-Jun-Release-Pkg/Export-mla-jun/Combo/MiWi Protocol to WiFi Wireless Demo Kit/MiWi_Demo_Board/BSP_MiWiDemoBd.c
            ButtonPressed   0x003ab8    program     extern /Users/sushma/Sushma Workspace/Projects/2013/MLA-Jun-Release-Pkg/Export-mla-jun/Combo/MiWi Protocol to WiFi Wireless Demo Kit/MiWi_Demo_Board/BSP_MiWiDemoBd.c
     UserInterruptHandler   0x003b08    program     extern /Users/sushma/Sushma Workspace/Projects/2013/MLA-Jun-Release-Pkg/Export-mla-jun/Combo/MiWi Protocol to WiFi Wireless Demo Kit/MiWi_Demo_Board/BSP_MiWiDemoBd.c
                   __pa_0   0x003b0a    program     static /Users/sushma/Sushma Workspace/Projects/2013/MLA-Jun-Release-Pkg/Export-mla-jun/Combo/MiWi Protocol to WiFi Wireless Demo Kit/MiWi_Demo_Board/BSP_MiWiDemoBd.c
               EEPROMRead   0x003b16    program     extern /Users/sushma/Sushma Workspace/Projects/2013/MLA-Jun-Release-Pkg/Export-mla-jun/Combo/MiWi Protocol to WiFi Wireless Demo Kit/MiWi_Demo_Board/MAC_EEProm.c
         Read_MAC_Address   0x003b62    program     extern /Users/sushma/Sushma Workspace/Projects/2013/MLA-Jun-Release-Pkg/Export-mla-jun/Combo/MiWi Protocol to WiFi Wireless Demo Kit/MiWi_Demo_Board/MAC_EEProm.c
                   __pa_0   0x003bac    program     static /Users/sushma/Sushma Workspace/Projects/2013/MLA-Jun-Release-Pkg/Export-mla-jun/Combo/MiWi Protocol to WiFi Wireless Demo Kit/MiWi_Demo_Board/MAC_EEProm.c
                   __pa_1   0x003bcc    program     static /Users/sushma/Sushma Workspace/Projects/2013/MLA-Jun-Release-Pkg/Export-mla-jun/Combo/MiWi Protocol to WiFi Wireless Demo Kit/MiWi_Demo_Board/MAC_EEProm.c
                _do_cinit   0x003bdc    program     extern C:\MCC18\v3_39\src\extended\startup\c018i_e.c
                     test   0x003bf6    program     static                          
                copy_loop   0x003c4e    program     static                          
            copy_one_byte   0x003c54    program     static                          
             done_copying   0x003c62    program     static                          
                     done   0x003c78    program     static                          
       ___return_lbl00002   0x003c78    program     static                          
                   memset   0x003c7a    program     extern C:\MCC18\v3_39\src\extended\stdclib\memset.asm
                    jLoop   0x003c8e    program     static C:\MCC18\v3_39\src\extended\stdclib\memset.asm
              _2jContinue   0x003c9a    program     static C:\MCC18\v3_39\src\extended\stdclib\memset.asm
                   _3jEnd   0x003ca4    program     static C:\MCC18\v3_39\src\extended\stdclib\memset.asm
                     jEnd   0x003cac    program     static C:\MCC18\v3_39\src\extended\stdclib\memset.asm
                   strlen   0x003cae    program     extern C:\MCC18\v3_39\src\extended\stdclib\strlen.asm
                    jLoop   0x003cbe    program     static C:\MCC18\v3_39\src\extended\stdclib\strlen.asm
                     jEnd   0x003cc8    program     static C:\MCC18\v3_39\src\extended\stdclib\strlen.asm
                strlenpgm   0x003cca    program     extern C:\MCC18\v3_39\src\extended\stdclib\slenpgm.asm
                    jLoop   0x003ce8    program     static C:\MCC18\v3_39\src\extended\stdclib\slenpgm.asm
                   _2jEnd   0x003cfe    program     static C:\MCC18\v3_39\src\extended\stdclib\slenpgm.asm
                     jEnd   0x003d00    program     static C:\MCC18\v3_39\src\extended\stdclib\slenpgm.asm
          InitSymbolTimer   0x003d14    program     extern /Users/sushma/Sushma Workspace/Projects/2013/MLA-Jun-Release-Pkg/Export-mla-jun/Microchip/WirelessProtocols/SymbolTime.c
             MiWi_TickGet   0x003d28    program     extern /Users/sushma/Sushma Workspace/Projects/2013/MLA-Jun-Release-Pkg/Export-mla-jun/Microchip/WirelessProtocols/SymbolTime.c
                  sprintf   0x003d90    program     extern C:\MCC18\v3_39\src\extended\stdclib\sprintf.c
                     putc   0x003e02    program     extern C:\MCC18\v3_39\src\extended\stdclib\putc.c
                   SPIPut   0x003e68    program     extern /Users/sushma/Sushma Workspace/Projects/2013/MLA-Jun-Release-Pkg/Export-mla-jun/Microchip/WirelessProtocols/MSPI.c
                   SPIGet   0x003e86    program     extern /Users/sushma/Sushma Workspace/Projects/2013/MLA-Jun-Release-Pkg/Export-mla-jun/Microchip/WirelessProtocols/MSPI.c
                  SPIPut2   0x003e90    program     extern /Users/sushma/Sushma Workspace/Projects/2013/MLA-Jun-Release-Pkg/Export-mla-jun/Microchip/WirelessProtocols/MSPI.c
                  SPIGet2   0x003eac    program     extern /Users/sushma/Sushma Workspace/Projects/2013/MLA-Jun-Release-Pkg/Export-mla-jun/Microchip/WirelessProtocols/MSPI.c
                   __pa_0   0x003eb6    program     static /Users/sushma/Sushma Workspace/Projects/2013/MLA-Jun-Release-Pkg/Export-mla-jun/Microchip/WirelessProtocols/MSPI.c
                 ScanTime   0x003ec4    program     extern /Users/sushma/Sushma Workspace/Projects/2013/MLA-Jun-Release-Pkg/Export-mla-jun/Microchip/WirelessProtocols/P2P/P2P.c
                  isdigit   0x003f00    program     extern C:\MCC18\v3_39\src\extended\stdclib\isdigit.asm
                   jMatch   0x003f20    program     static C:\MCC18\v3_39\src\extended\stdclib\isdigit.asm
                 jNoMatch   0x003f22    program     static C:\MCC18\v3_39\src\extended\stdclib\isdigit.asm
               __string_1   0x003f24    program     static /Users/sushma/Sushma Workspace/Projects/2013/MLA-Jun-Release-Pkg/Export-mla-jun/Combo/MiWi Protocol to WiFi Wireless Demo Kit/MiWi_Demo_Board/Demo.c
               __string_0   0x003f34    program     static /Users/sushma/Sushma Workspace/Projects/2013/MLA-Jun-Release-Pkg/Export-mla-jun/Combo/MiWi Protocol to WiFi Wireless Demo Kit/MiWi_Demo_Board/Demo.c
            __zero_memory   0x003f46    program     extern C:\MCC18\v3_39\src\extended\proc\p18F46J50.asm
               zero_block   0x003f54    program     static C:\MCC18\v3_39\src\extended\proc\p18F46J50.asm
                   loop_h   0x003f54    program     static C:\MCC18\v3_39\src\extended\proc\p18F46J50.asm
                compare_l   0x003f5c    program     static C:\MCC18\v3_39\src\extended\proc\p18F46J50.asm
                   loop_l   0x003f5e    program     static C:\MCC18\v3_39\src\extended\proc\p18F46J50.asm
              _usart_putc   0x003f66    program     extern C:\MCC18\v3_39\src\pmc_common\USART\_usartpc.asm
                     loop   0x003f76    program     static C:\MCC18\v3_39\src\pmc_common\USART\_usartpc.asm
                 _startup   0x003f82    program     extern C:\MCC18\v3_39\src\extended\startup\c018i_e.c
                     loop   0x003f90    program     static                          
       ___return_lbl00001   0x003f9a    program     static                          
                 s_digits   0x003f9c    program     static C:\MCC18\v3_39\src\extended\stdclib\vfprintf.c
               __config_0   0x00fff8    program     static /Users/sushma/Sushma Workspace/Projects/2013/MLA-Jun-Release-Pkg/Export-mla-jun/Combo/MiWi Protocol to WiFi Wireless Demo Kit/MiWi_Demo_Board/BSP_MiWiDemoBd.c
               __config_1   0x00fff9    program     static /Users/sushma/Sushma Workspace/Projects/2013/MLA-Jun-Release-Pkg/Export-mla-jun/Combo/MiWi Protocol to WiFi Wireless Demo Kit/MiWi_Demo_Board/BSP_MiWiDemoBd.c
               __config_2   0x00fffa    program     static /Users/sushma/Sushma Workspace/Projects/2013/MLA-Jun-Release-Pkg/Export-mla-jun/Combo/MiWi Protocol to WiFi Wireless Demo Kit/MiWi_Demo_Board/BSP_MiWiDemoBd.c
               __config_3   0x00fffb    program     static /Users/sushma/Sushma Workspace/Projects/2013/MLA-Jun-Release-Pkg/Export-mla-jun/Combo/MiWi Protocol to WiFi Wireless Demo Kit/MiWi_Demo_Board/BSP_MiWiDemoBd.c
           switch0Pressed   0x000000       data     extern /Users/sushma/Sushma Workspace/Projects/2013/MLA-Jun-Release-Pkg/Export-mla-jun/Combo/MiWi Protocol to WiFi Wireless Demo Kit/MiWi_Demo_Board/BSP_MiWiDemoBd.c
         switch0PressTime   0x000001       data     extern /Users/sushma/Sushma Workspace/Projects/2013/MLA-Jun-Release-Pkg/Export-mla-jun/Combo/MiWi Protocol to WiFi Wireless Demo Kit/MiWi_Demo_Board/BSP_MiWiDemoBd.c
           switch1Pressed   0x000005       data     extern /Users/sushma/Sushma Workspace/Projects/2013/MLA-Jun-Release-Pkg/Export-mla-jun/Combo/MiWi Protocol to WiFi Wireless Demo Kit/MiWi_Demo_Board/BSP_MiWiDemoBd.c
         switch1PressTime   0x000006       data     extern /Users/sushma/Sushma Workspace/Projects/2013/MLA-Jun-Release-Pkg/Export-mla-jun/Combo/MiWi Protocol to WiFi Wireless Demo Kit/MiWi_Demo_Board/BSP_MiWiDemoBd.c
            myLongAddress   0x00000a       data     extern /Users/sushma/Sushma Workspace/Projects/2013/MLA-Jun-Release-Pkg/Export-mla-jun/Microchip/WirelessProtocols/P2P/P2P.c
           currentChannel   0x000012       data     extern /Users/sushma/Sushma Workspace/Projects/2013/MLA-Jun-Release-Pkg/Export-mla-jun/Microchip/WirelessProtocols/P2P/P2P.c
                 ConnMode   0x000013       data     extern /Users/sushma/Sushma Workspace/Projects/2013/MLA-Jun-Release-Pkg/Export-mla-jun/Microchip/WirelessProtocols/P2P/P2P.c
                  __tmp_0   0x000014       data     static /Users/sushma/Sushma Workspace/Projects/2013/MLA-Jun-Release-Pkg/Export-mla-jun/Combo/MiWi Protocol to WiFi Wireless Demo Kit/MiWi_Demo_Board/Demo.c
                  __tmp_0   0x000014       data     static /Users/sushma/Sushma Workspace/Projects/2013/MLA-Jun-Release-Pkg/Export-mla-jun/Microchip/Transceivers/MRF24J40/MRF24J40.c
                  __tmp_0   0x000014       data     static /Users/sushma/Sushma Workspace/Projects/2013/MLA-Jun-Release-Pkg/Export-mla-jun/Combo/MiWi Protocol to WiFi Wireless Demo Kit/MiWi_Demo_Board/MAC_EEProm.c
                  __tmp_0   0x000014       data     static C:\MCC18\v3_39\src\extended\stdclib\vfprintf.c
                  __tmp_0   0x000014       data     static /Users/sushma/Sushma Workspace/Projects/2013/MLA-Jun-Release-Pkg/Export-mla-jun/Combo/MiWi Protocol to WiFi Wireless Demo Kit/MiWi_Demo_Board/LocalFiles/NVM.c
                  __tmp_0   0x000014       data     static /Users/sushma/Sushma Workspace/Projects/2013/MLA-Jun-Release-Pkg/Export-mla-jun/Microchip/Common/TimeDelay.c
                  __tmp_0   0x000014       data     static /Users/sushma/Sushma Workspace/Projects/2013/MLA-Jun-Release-Pkg/Export-mla-jun/Microchip/WirelessProtocols/P2P/P2P.c
                BankIndex   0x00001c       data     extern /Users/sushma/Sushma Workspace/Projects/2013/MLA-Jun-Release-Pkg/Export-mla-jun/Microchip/Transceivers/MRF24J40/MRF24J40.c
           failureCounter   0x00001d       data     extern /Users/sushma/Sushma Workspace/Projects/2013/MLA-Jun-Release-Pkg/Export-mla-jun/Microchip/Transceivers/MRF24J40/MRF24J40.c
                myChannel   0x00001f       data     extern /Users/sushma/Sushma Workspace/Projects/2013/MLA-Jun-Release-Pkg/Export-mla-jun/Combo/MiWi Protocol to WiFi Wireless Demo Kit/MiWi_Demo_Board/Demo.c
         NetFreezerEnable   0x000020       data     extern /Users/sushma/Sushma Workspace/Projects/2013/MLA-Jun-Release-Pkg/Export-mla-jun/Combo/MiWi Protocol to WiFi Wireless Demo Kit/MiWi_Demo_Board/Demo.c
         AdditionalNodeID   0x000021       data     extern /Users/sushma/Sushma Workspace/Projects/2013/MLA-Jun-Release-Pkg/Export-mla-jun/Combo/MiWi Protocol to WiFi Wireless Demo Kit/MiWi_Demo_Board/Demo.c
                 RxBuffer   0x000060       data     extern /Users/sushma/Sushma Workspace/Projects/2013/MLA-Jun-Release-Pkg/Export-mla-jun/Microchip/Transceivers/MRF24J40/MRF24J40.c
                __RETVAL0   0x0000fc       data     extern C:\MCC18\v3_39\src\extended\math\cmath18.asm
                __RETVAL1   0x0000fd       data     extern C:\MCC18\v3_39\src\extended\math\cmath18.asm
                __RETVAL2   0x0000fe       data     extern C:\MCC18\v3_39\src\extended\math\cmath18.asm
                __RETVAL3   0x0000ff       data     extern C:\MCC18\v3_39\src\extended\math\cmath18.asm
         BroadcastTracker   0x000100       data     extern /Users/sushma/Sushma Workspace/Projects/2013/MLA-Jun-Release-Pkg/Export-mla-jun/Combo/MiWi Protocol to WiFi Wireless Demo Kit/MiWi_Demo_Board/Demo.c
        connectionAddress   0x0001e1       data     extern /Users/sushma/Sushma Workspace/Projects/2013/MLA-Jun-Release-Pkg/Export-mla-jun/Combo/MiWi Protocol to WiFi Wireless Demo Kit/MiWi_Demo_Board/Demo.c
               nvmMyPANID   0x0001e4       data     extern /Users/sushma/Sushma Workspace/Projects/2013/MLA-Jun-Release-Pkg/Export-mla-jun/Combo/MiWi Protocol to WiFi Wireless Demo Kit/MiWi_Demo_Board/LocalFiles/NVM.c
        nvmCurrentChannel   0x0001e6       data     extern /Users/sushma/Sushma Workspace/Projects/2013/MLA-Jun-Release-Pkg/Export-mla-jun/Combo/MiWi Protocol to WiFi Wireless Demo Kit/MiWi_Demo_Board/LocalFiles/NVM.c
              nvmConnMode   0x0001e8       data     extern /Users/sushma/Sushma Workspace/Projects/2013/MLA-Jun-Release-Pkg/Export-mla-jun/Combo/MiWi Protocol to WiFi Wireless Demo Kit/MiWi_Demo_Board/LocalFiles/NVM.c
       nvmConnectionTable   0x0001ea       data     extern /Users/sushma/Sushma Workspace/Projects/2013/MLA-Jun-Release-Pkg/Export-mla-jun/Combo/MiWi Protocol to WiFi Wireless Demo Kit/MiWi_Demo_Board/LocalFiles/NVM.c
       nvmOutFrameCounter   0x0001ec       data     extern /Users/sushma/Sushma Workspace/Projects/2013/MLA-Jun-Release-Pkg/Export-mla-jun/Combo/MiWi Protocol to WiFi Wireless Demo Kit/MiWi_Demo_Board/LocalFiles/NVM.c
           nextEEPosition   0x0001ee       data     extern /Users/sushma/Sushma Workspace/Projects/2013/MLA-Jun-Release-Pkg/Export-mla-jun/Combo/MiWi Protocol to WiFi Wireless Demo Kit/MiWi_Demo_Board/LocalFiles/NVM.c
                     prom   0x0001f0       data     static C:\MCC18\v3_39\src\extended\startup\c018i_e.c
                curr_byte   0x0001f3       data     static C:\MCC18\v3_39\src\extended\startup\c018i_e.c
               curr_entry   0x0001f5       data     static C:\MCC18\v3_39\src\extended\startup\c018i_e.c
                 data_ptr   0x0001f7       data     static C:\MCC18\v3_39\src\extended\startup\c018i_e.c
                  __tmp_1   0x0001fa       data     static /Users/sushma/Sushma Workspace/Projects/2013/MLA-Jun-Release-Pkg/Export-mla-jun/Microchip/Transceivers/MRF24J40/MRF24J40.c
          timerExtension1   0x0001fe       data     extern /Users/sushma/Sushma Workspace/Projects/2013/MLA-Jun-Release-Pkg/Export-mla-jun/Microchip/WirelessProtocols/SymbolTime.c
          timerExtension2   0x0001ff       data     extern /Users/sushma/Sushma Workspace/Projects/2013/MLA-Jun-Release-Pkg/Export-mla-jun/Microchip/WirelessProtocols/SymbolTime.c
         indirectMessages   0x000200       data     extern /Users/sushma/Sushma Workspace/Projects/2013/MLA-Jun-Release-Pkg/Export-mla-jun/Microchip/WirelessProtocols/P2P/P2P.c
          ConnectionTable   0x000274       data     extern /Users/sushma/Sushma Workspace/Projects/2013/MLA-Jun-Release-Pkg/Export-mla-jun/Microchip/WirelessProtocols/P2P/P2P.c
                 TxBuffer   0x0002d8       data     extern /Users/sushma/Sushma Workspace/Projects/2013/MLA-Jun-Release-Pkg/Export-mla-jun/Microchip/WirelessProtocols/P2P/P2P.c
                  myPANID   0x000e00       data     extern /Users/sushma/Sushma Workspace/Projects/2013/MLA-Jun-Release-Pkg/Export-mla-jun/Microchip/WirelessProtocols/P2P/P2P.c
                   TxData   0x000e02       data     extern /Users/sushma/Sushma Workspace/Projects/2013/MLA-Jun-Release-Pkg/Export-mla-jun/Microchip/WirelessProtocols/P2P/P2P.c
          P2PCapacityInfo   0x000e03       data     extern /Users/sushma/Sushma Workspace/Projects/2013/MLA-Jun-Release-Pkg/Export-mla-jun/Microchip/WirelessProtocols/P2P/P2P.c
                rxMessage   0x000e04       data     extern /Users/sushma/Sushma Workspace/Projects/2013/MLA-Jun-Release-Pkg/Export-mla-jun/Microchip/WirelessProtocols/P2P/P2P.c
         LatestConnection   0x000e0e       data     extern /Users/sushma/Sushma Workspace/Projects/2013/MLA-Jun-Release-Pkg/Export-mla-jun/Microchip/WirelessProtocols/P2P/P2P.c
                P2PStatus   0x000e0f       data     extern /Users/sushma/Sushma Workspace/Projects/2013/MLA-Jun-Release-Pkg/Export-mla-jun/Microchip/WirelessProtocols/P2P/P2P.c
    ActiveScanResultIndex   0x000e10       data     extern /Users/sushma/Sushma Workspace/Projects/2013/MLA-Jun-Release-Pkg/Export-mla-jun/Microchip/WirelessProtocols/P2P/P2P.c
        ActiveScanResults   0x000e11       data     extern /Users/sushma/Sushma Workspace/Projects/2013/MLA-Jun-Release-Pkg/Export-mla-jun/Microchip/WirelessProtocols/P2P/P2P.c
              MACRxPacket   0x000e4d       data     extern /Users/sushma/Sushma Workspace/Projects/2013/MLA-Jun-Release-Pkg/Export-mla-jun/Microchip/WirelessProtocols/P2P/P2P.c
     IncomingFrameCounter   0x000e58       data     extern /Users/sushma/Sushma Workspace/Projects/2013/MLA-Jun-Release-Pkg/Export-mla-jun/Microchip/WirelessProtocols/P2P/P2P.c
             nvmDelayTick   0x000e80       data     extern /Users/sushma/Sushma Workspace/Projects/2013/MLA-Jun-Release-Pkg/Export-mla-jun/Microchip/WirelessProtocols/P2P/P2P.c
                  LCDText   0x000e84       data     extern /Users/sushma/Sushma Workspace/Projects/2013/MLA-Jun-Release-Pkg/Export-mla-jun/Combo/MiWi Protocol to WiFi Wireless Demo Kit/MiWi_Demo_Board/LCD_ST7032.c
            MACInitParams   0x000ea5       data     extern /Users/sushma/Sushma Workspace/Projects/2013/MLA-Jun-Release-Pkg/Export-mla-jun/Microchip/Transceivers/MRF24J40/MRF24J40.c
     OutgoingFrameCounter   0x000ea8       data     extern /Users/sushma/Sushma Workspace/Projects/2013/MLA-Jun-Release-Pkg/Export-mla-jun/Microchip/Transceivers/MRF24J40/MRF24J40.c
     tmpSourceLongAddress   0x000eac       data     extern /Users/sushma/Sushma Workspace/Projects/2013/MLA-Jun-Release-Pkg/Export-mla-jun/Microchip/Transceivers/MRF24J40/MRF24J40.c
          tmpFrameCounter   0x000eb4       data     extern /Users/sushma/Sushma Workspace/Projects/2013/MLA-Jun-Release-Pkg/Export-mla-jun/Microchip/Transceivers/MRF24J40/MRF24J40.c
               IEEESeqNum   0x000eb8       data     extern /Users/sushma/Sushma Workspace/Projects/2013/MLA-Jun-Release-Pkg/Export-mla-jun/Microchip/Transceivers/MRF24J40/MRF24J40.c
        MACCurrentChannel   0x000eb9       data     extern /Users/sushma/Sushma Workspace/Projects/2013/MLA-Jun-Release-Pkg/Export-mla-jun/Microchip/Transceivers/MRF24J40/MRF24J40.c
                MAC_PANID   0x000eba       data     extern /Users/sushma/Sushma Workspace/Projects/2013/MLA-Jun-Release-Pkg/Export-mla-jun/Microchip/Transceivers/MRF24J40/MRF24J40.c
         myNetworkAddress   0x000ebc       data     extern /Users/sushma/Sushma Workspace/Projects/2013/MLA-Jun-Release-Pkg/Export-mla-jun/Microchip/Transceivers/MRF24J40/MRF24J40.c
           MRF24J40Status   0x000ebe       data     extern /Users/sushma/Sushma Workspace/Projects/2013/MLA-Jun-Release-Pkg/Export-mla-jun/Microchip/Transceivers/MRF24J40/MRF24J40.c
                    RPOR0   0x000ec6       data     extern C:\MCC18\v3_39\src\extended\proc\p18F46J50.asm
                    RPOR1   0x000ec7       data     extern C:\MCC18\v3_39\src\extended\proc\p18F46J50.asm
                    RPOR2   0x000ec8       data     extern C:\MCC18\v3_39\src\extended\proc\p18F46J50.asm
                    RPOR3   0x000ec9       data     extern C:\MCC18\v3_39\src\extended\proc\p18F46J50.asm
                    RPOR4   0x000eca       data     extern C:\MCC18\v3_39\src\extended\proc\p18F46J50.asm
                    RPOR5   0x000ecb       data     extern C:\MCC18\v3_39\src\extended\proc\p18F46J50.asm
                    RPOR6   0x000ecc       data     extern C:\MCC18\v3_39\src\extended\proc\p18F46J50.asm
                    RPOR7   0x000ecd       data     extern C:\MCC18\v3_39\src\extended\proc\p18F46J50.asm
                    RPOR8   0x000ece       data     extern C:\MCC18\v3_39\src\extended\proc\p18F46J50.asm
                    RPOR9   0x000ecf       data     extern C:\MCC18\v3_39\src\extended\proc\p18F46J50.asm
                   RPOR10   0x000ed0       data     extern C:\MCC18\v3_39\src\extended\proc\p18F46J50.asm
                   RPOR11   0x000ed1       data     extern C:\MCC18\v3_39\src\extended\proc\p18F46J50.asm
                   RPOR12   0x000ed2       data     extern C:\MCC18\v3_39\src\extended\proc\p18F46J50.asm
                   RPOR13   0x000ed3       data     extern C:\MCC18\v3_39\src\extended\proc\p18F46J50.asm
                   RPOR17   0x000ed7       data     extern C:\MCC18\v3_39\src\extended\proc\p18F46J50.asm
                   RPOR18   0x000ed8       data     extern C:\MCC18\v3_39\src\extended\proc\p18F46J50.asm
                   RPOR19   0x000ed9       data     extern C:\MCC18\v3_39\src\extended\proc\p18F46J50.asm
                   RPOR20   0x000eda       data     extern C:\MCC18\v3_39\src\extended\proc\p18F46J50.asm
                   RPOR21   0x000edb       data     extern C:\MCC18\v3_39\src\extended\proc\p18F46J50.asm
                   RPOR22   0x000edc       data     extern C:\MCC18\v3_39\src\extended\proc\p18F46J50.asm
                   RPOR23   0x000edd       data     extern C:\MCC18\v3_39\src\extended\proc\p18F46J50.asm
                   RPOR24   0x000ede       data     extern C:\MCC18\v3_39\src\extended\proc\p18F46J50.asm
                   RPINR1   0x000ee7       data     extern C:\MCC18\v3_39\src\extended\proc\p18F46J50.asm
                   RPINR2   0x000ee8       data     extern C:\MCC18\v3_39\src\extended\proc\p18F46J50.asm
                   RPINR3   0x000ee9       data     extern C:\MCC18\v3_39\src\extended\proc\p18F46J50.asm
                   RPINR4   0x000eea       data     extern C:\MCC18\v3_39\src\extended\proc\p18F46J50.asm
                   RPINR6   0x000eec       data     extern C:\MCC18\v3_39\src\extended\proc\p18F46J50.asm
                   RPINR7   0x000eed       data     extern C:\MCC18\v3_39\src\extended\proc\p18F46J50.asm
                   RPINR8   0x000eee       data     extern C:\MCC18\v3_39\src\extended\proc\p18F46J50.asm
                  RPINR12   0x000ef2       data     extern C:\MCC18\v3_39\src\extended\proc\p18F46J50.asm
                  RPINR13   0x000ef3       data     extern C:\MCC18\v3_39\src\extended\proc\p18F46J50.asm
                  RPINR16   0x000ef6       data     extern C:\MCC18\v3_39\src\extended\proc\p18F46J50.asm
                  RPINR17   0x000ef7       data     extern C:\MCC18\v3_39\src\extended\proc\p18F46J50.asm
                  RPINR21   0x000efb       data     extern C:\MCC18\v3_39\src\extended\proc\p18F46J50.asm
                  RPINR22   0x000efc       data     extern C:\MCC18\v3_39\src\extended\proc\p18F46J50.asm
                  RPINR23   0x000efd       data     extern C:\MCC18\v3_39\src\extended\proc\p18F46J50.asm
                  RPINR24   0x000efe       data     extern C:\MCC18\v3_39\src\extended\proc\p18F46J50.asm
               PPSCONbits   0x000eff       data     extern C:\MCC18\v3_39\src\extended\proc\p18F46J50.asm
                   PPSCON   0x000eff       data     extern C:\MCC18\v3_39\src\extended\proc\p18F46J50.asm
                 UEP0bits   0x000f26       data     extern C:\MCC18\v3_39\src\extended\proc\p18F46J50.asm
                     UEP0   0x000f26       data     extern C:\MCC18\v3_39\src\extended\proc\p18F46J50.asm
                     UEP1   0x000f27       data     extern C:\MCC18\v3_39\src\extended\proc\p18F46J50.asm
                 UEP1bits   0x000f27       data     extern C:\MCC18\v3_39\src\extended\proc\p18F46J50.asm
                 UEP2bits   0x000f28       data     extern C:\MCC18\v3_39\src\extended\proc\p18F46J50.asm
                     UEP2   0x000f28       data     extern C:\MCC18\v3_39\src\extended\proc\p18F46J50.asm
                 UEP3bits   0x000f29       data     extern C:\MCC18\v3_39\src\extended\proc\p18F46J50.asm
                     UEP3   0x000f29       data     extern C:\MCC18\v3_39\src\extended\proc\p18F46J50.asm
                     UEP4   0x000f2a       data     extern C:\MCC18\v3_39\src\extended\proc\p18F46J50.asm
                 UEP4bits   0x000f2a       data     extern C:\MCC18\v3_39\src\extended\proc\p18F46J50.asm
                     UEP5   0x000f2b       data     extern C:\MCC18\v3_39\src\extended\proc\p18F46J50.asm
                 UEP5bits   0x000f2b       data     extern C:\MCC18\v3_39\src\extended\proc\p18F46J50.asm
                     UEP6   0x000f2c       data     extern C:\MCC18\v3_39\src\extended\proc\p18F46J50.asm
                 UEP6bits   0x000f2c       data     extern C:\MCC18\v3_39\src\extended\proc\p18F46J50.asm
                     UEP7   0x000f2d       data     extern C:\MCC18\v3_39\src\extended\proc\p18F46J50.asm
                 UEP7bits   0x000f2d       data     extern C:\MCC18\v3_39\src\extended\proc\p18F46J50.asm
                     UEP8   0x000f2e       data     extern C:\MCC18\v3_39\src\extended\proc\p18F46J50.asm
                 UEP8bits   0x000f2e       data     extern C:\MCC18\v3_39\src\extended\proc\p18F46J50.asm
                     UEP9   0x000f2f       data     extern C:\MCC18\v3_39\src\extended\proc\p18F46J50.asm
                 UEP9bits   0x000f2f       data     extern C:\MCC18\v3_39\src\extended\proc\p18F46J50.asm
                    UEP10   0x000f30       data     extern C:\MCC18\v3_39\src\extended\proc\p18F46J50.asm
                UEP10bits   0x000f30       data     extern C:\MCC18\v3_39\src\extended\proc\p18F46J50.asm
                    UEP11   0x000f31       data     extern C:\MCC18\v3_39\src\extended\proc\p18F46J50.asm
                UEP11bits   0x000f31       data     extern C:\MCC18\v3_39\src\extended\proc\p18F46J50.asm
                    UEP12   0x000f32       data     extern C:\MCC18\v3_39\src\extended\proc\p18F46J50.asm
                UEP12bits   0x000f32       data     extern C:\MCC18\v3_39\src\extended\proc\p18F46J50.asm
                    UEP13   0x000f33       data     extern C:\MCC18\v3_39\src\extended\proc\p18F46J50.asm
                UEP13bits   0x000f33       data     extern C:\MCC18\v3_39\src\extended\proc\p18F46J50.asm
                    UEP14   0x000f34       data     extern C:\MCC18\v3_39\src\extended\proc\p18F46J50.asm
                UEP14bits   0x000f34       data     extern C:\MCC18\v3_39\src\extended\proc\p18F46J50.asm
                UEP15bits   0x000f35       data     extern C:\MCC18\v3_39\src\extended\proc\p18F46J50.asm
                    UEP15   0x000f35       data     extern C:\MCC18\v3_39\src\extended\proc\p18F46J50.asm
                  UIEbits   0x000f36       data     extern C:\MCC18\v3_39\src\extended\proc\p18F46J50.asm
                      UIE   0x000f36       data     extern C:\MCC18\v3_39\src\extended\proc\p18F46J50.asm
                     UEIE   0x000f37       data     extern C:\MCC18\v3_39\src\extended\proc\p18F46J50.asm
                 UEIEbits   0x000f37       data     extern C:\MCC18\v3_39\src\extended\proc\p18F46J50.asm
                    UADDR   0x000f38       data     extern C:\MCC18\v3_39\src\extended\proc\p18F46J50.asm
                UADDRbits   0x000f38       data     extern C:\MCC18\v3_39\src\extended\proc\p18F46J50.asm
                 UCFGbits   0x000f39       data     extern C:\MCC18\v3_39\src\extended\proc\p18F46J50.asm
                     UCFG   0x000f39       data     extern C:\MCC18\v3_39\src\extended\proc\p18F46J50.asm
              PADCFG1bits   0x000f3c       data     extern C:\MCC18\v3_39\src\extended\proc\p18F46J50.asm
                  PADCFG1   0x000f3c       data     extern C:\MCC18\v3_39\src\extended\proc\p18F46J50.asm
              REFOCONbits   0x000f3d       data     extern C:\MCC18\v3_39\src\extended\proc\p18F46J50.asm
                  REFOCON   0x000f3d       data     extern C:\MCC18\v3_39\src\extended\proc\p18F46J50.asm
               RTCCALbits   0x000f3e       data     extern C:\MCC18\v3_39\src\extended\proc\p18F46J50.asm
                   RTCCAL   0x000f3e       data     extern C:\MCC18\v3_39\src\extended\proc\p18F46J50.asm
               RTCCFGbits   0x000f3f       data     extern C:\MCC18\v3_39\src\extended\proc\p18F46J50.asm
                   RTCCFG   0x000f3f       data     extern C:\MCC18\v3_39\src\extended\proc\p18F46J50.asm
               ODCON3bits   0x000f40       data     extern C:\MCC18\v3_39\src\extended\proc\p18F46J50.asm
                   ODCON3   0x000f40       data     extern C:\MCC18\v3_39\src\extended\proc\p18F46J50.asm
               ODCON2bits   0x000f41       data     extern C:\MCC18\v3_39\src\extended\proc\p18F46J50.asm
                   ODCON2   0x000f41       data     extern C:\MCC18\v3_39\src\extended\proc\p18F46J50.asm
               ODCON1bits   0x000f42       data     extern C:\MCC18\v3_39\src\extended\proc\p18F46J50.asm
                   ODCON1   0x000f42       data     extern C:\MCC18\v3_39\src\extended\proc\p18F46J50.asm
                   ANCON0   0x000f48       data     extern C:\MCC18\v3_39\src\extended\proc\p18F46J50.asm
               ANCON0bits   0x000f48       data     extern C:\MCC18\v3_39\src\extended\proc\p18F46J50.asm
               ANCON1bits   0x000f49       data     extern C:\MCC18\v3_39\src\extended\proc\p18F46J50.asm
                   ANCON1   0x000f49       data     extern C:\MCC18\v3_39\src\extended\proc\p18F46J50.asm
              DSWAKELbits   0x000f4a       data     extern C:\MCC18\v3_39\src\extended\proc\p18F46J50.asm
                  DSWAKEL   0x000f4a       data     extern C:\MCC18\v3_39\src\extended\proc\p18F46J50.asm
                  DSWAKEH   0x000f4b       data     extern C:\MCC18\v3_39\src\extended\proc\p18F46J50.asm
              DSWAKEHbits   0x000f4b       data     extern C:\MCC18\v3_39\src\extended\proc\p18F46J50.asm
                   DSCONL   0x000f4c       data     extern C:\MCC18\v3_39\src\extended\proc\p18F46J50.asm
               DSCONLbits   0x000f4c       data     extern C:\MCC18\v3_39\src\extended\proc\p18F46J50.asm
               DSCONHbits   0x000f4d       data     extern C:\MCC18\v3_39\src\extended\proc\p18F46J50.asm
                   DSCONH   0x000f4d       data     extern C:\MCC18\v3_39\src\extended\proc\p18F46J50.asm
                   DSGPR0   0x000f4e       data     extern C:\MCC18\v3_39\src\extended\proc\p18F46J50.asm
                   DSGPR1   0x000f4f       data     extern C:\MCC18\v3_39\src\extended\proc\p18F46J50.asm
              TCLKCONbits   0x000f52       data     extern C:\MCC18\v3_39\src\extended\proc\p18F46J50.asm
                  TCLKCON   0x000f52       data     extern C:\MCC18\v3_39\src\extended\proc\p18F46J50.asm
               CVRCONbits   0x000f53       data     extern C:\MCC18\v3_39\src\extended\proc\p18F46J50.asm
                   CVRCON   0x000f53       data     extern C:\MCC18\v3_39\src\extended\proc\p18F46J50.asm
              PMSTATLbits   0x000f54       data     extern C:\MCC18\v3_39\src\extended\proc\p18F46J50.asm
                  PMSTATL   0x000f54       data     extern C:\MCC18\v3_39\src\extended\proc\p18F46J50.asm
              PMSTATHbits   0x000f55       data     extern C:\MCC18\v3_39\src\extended\proc\p18F46J50.asm
                  PMSTATH   0x000f55       data     extern C:\MCC18\v3_39\src\extended\proc\p18F46J50.asm
                 PMELbits   0x000f56       data     extern C:\MCC18\v3_39\src\extended\proc\p18F46J50.asm
                     PMEL   0x000f56       data     extern C:\MCC18\v3_39\src\extended\proc\p18F46J50.asm
                 PMEHbits   0x000f57       data     extern C:\MCC18\v3_39\src\extended\proc\p18F46J50.asm
                     PMEH   0x000f57       data     extern C:\MCC18\v3_39\src\extended\proc\p18F46J50.asm
                  PMDIN2L   0x000f58       data     extern C:\MCC18\v3_39\src\extended\proc\p18F46J50.asm
                  PMDIN2H   0x000f59       data     extern C:\MCC18\v3_39\src\extended\proc\p18F46J50.asm
                 PMDOUT2L   0x000f5a       data     extern C:\MCC18\v3_39\src\extended\proc\p18F46J50.asm
                 PMDOUT2H   0x000f5b       data     extern C:\MCC18\v3_39\src\extended\proc\p18F46J50.asm
                  PMMODEL   0x000f5c       data     extern C:\MCC18\v3_39\src\extended\proc\p18F46J50.asm
              PMMODELbits   0x000f5c       data     extern C:\MCC18\v3_39\src\extended\proc\p18F46J50.asm
                  PMMODEH   0x000f5d       data     extern C:\MCC18\v3_39\src\extended\proc\p18F46J50.asm
              PMMODEHbits   0x000f5d       data     extern C:\MCC18\v3_39\src\extended\proc\p18F46J50.asm
               PMCONLbits   0x000f5e       data     extern C:\MCC18\v3_39\src\extended\proc\p18F46J50.asm
                   PMCONL   0x000f5e       data     extern C:\MCC18\v3_39\src\extended\proc\p18F46J50.asm
               PMCONHbits   0x000f5f       data     extern C:\MCC18\v3_39\src\extended\proc\p18F46J50.asm
                   PMCONH   0x000f5f       data     extern C:\MCC18\v3_39\src\extended\proc\p18F46J50.asm
                    UFRML   0x000f60       data     extern C:\MCC18\v3_39\src\extended\proc\p18F46J50.asm
                UFRMLbits   0x000f60       data     extern C:\MCC18\v3_39\src\extended\proc\p18F46J50.asm
                     UFRM   0x000f60       data     extern C:\MCC18\v3_39\src\extended\proc\p18F46J50.asm
                    UFRMH   0x000f61       data     extern C:\MCC18\v3_39\src\extended\proc\p18F46J50.asm
                UFRMHbits   0x000f61       data     extern C:\MCC18\v3_39\src\extended\proc\p18F46J50.asm
                  UIRbits   0x000f62       data     extern C:\MCC18\v3_39\src\extended\proc\p18F46J50.asm
                      UIR   0x000f62       data     extern C:\MCC18\v3_39\src\extended\proc\p18F46J50.asm
                     UEIR   0x000f63       data     extern C:\MCC18\v3_39\src\extended\proc\p18F46J50.asm
                 UEIRbits   0x000f63       data     extern C:\MCC18\v3_39\src\extended\proc\p18F46J50.asm
                    USTAT   0x000f64       data     extern C:\MCC18\v3_39\src\extended\proc\p18F46J50.asm
                USTATbits   0x000f64       data     extern C:\MCC18\v3_39\src\extended\proc\p18F46J50.asm
                     UCON   0x000f65       data     extern C:\MCC18\v3_39\src\extended\proc\p18F46J50.asm
                 UCONbits   0x000f65       data     extern C:\MCC18\v3_39\src\extended\proc\p18F46J50.asm
               DMABCHbits   0x000f66       data     extern C:\MCC18\v3_39\src\extended\proc\p18F46J50.asm
                   DMABCH   0x000f66       data     extern C:\MCC18\v3_39\src\extended\proc\p18F46J50.asm
                   DMABCL   0x000f67       data     extern C:\MCC18\v3_39\src\extended\proc\p18F46J50.asm
              RXADDRHbits   0x000f68       data     extern C:\MCC18\v3_39\src\extended\proc\p18F46J50.asm
                  RXADDRH   0x000f68       data     extern C:\MCC18\v3_39\src\extended\proc\p18F46J50.asm
                  RXADDRL   0x000f69       data     extern C:\MCC18\v3_39\src\extended\proc\p18F46J50.asm
              TXADDRHbits   0x000f6a       data     extern C:\MCC18\v3_39\src\extended\proc\p18F46J50.asm
                  TXADDRH   0x000f6a       data     extern C:\MCC18\v3_39\src\extended\proc\p18F46J50.asm
                  TXADDRL   0x000f6b       data     extern C:\MCC18\v3_39\src\extended\proc\p18F46J50.asm
                  PMDIN1L   0x000f6c       data     extern C:\MCC18\v3_39\src\extended\proc\p18F46J50.asm
                  PMDIN1H   0x000f6d       data     extern C:\MCC18\v3_39\src\extended\proc\p18F46J50.asm
                  PMADDRL   0x000f6e       data     extern C:\MCC18\v3_39\src\extended\proc\p18F46J50.asm
                 PMDOUT1L   0x000f6e       data     extern C:\MCC18\v3_39\src\extended\proc\p18F46J50.asm
                  PMADDRH   0x000f6f       data     extern C:\MCC18\v3_39\src\extended\proc\p18F46J50.asm
              PMADDRHbits   0x000f6f       data     extern C:\MCC18\v3_39\src\extended\proc\p18F46J50.asm
                 PMDOUT1H   0x000f6f       data     extern C:\MCC18\v3_39\src\extended\proc\p18F46J50.asm
                   CMSTAT   0x000f70       data     extern C:\MCC18\v3_39\src\extended\proc\p18F46J50.asm
                 CMSTATUS   0x000f70       data     extern C:\MCC18\v3_39\src\extended\proc\p18F46J50.asm
             CMSTATUSbits   0x000f70       data     extern C:\MCC18\v3_39\src\extended\proc\p18F46J50.asm
               CMSTATbits   0x000f70       data     extern C:\MCC18\v3_39\src\extended\proc\p18F46J50.asm
             SSP2CON2bits   0x000f71       data     extern C:\MCC18\v3_39\src\extended\proc\p18F46J50.asm
                 SSP2CON2   0x000f71       data     extern C:\MCC18\v3_39\src\extended\proc\p18F46J50.asm
             SSP2CON1bits   0x000f72       data     extern C:\MCC18\v3_39\src\extended\proc\p18F46J50.asm
                 SSP2CON1   0x000f72       data     extern C:\MCC18\v3_39\src\extended\proc\p18F46J50.asm
             SSP2STATbits   0x000f73       data     extern C:\MCC18\v3_39\src\extended\proc\p18F46J50.asm
                 SSP2STAT   0x000f73       data     extern C:\MCC18\v3_39\src\extended\proc\p18F46J50.asm
                  SSP2ADD   0x000f74       data     extern C:\MCC18\v3_39\src\extended\proc\p18F46J50.asm
              SSP2ADDbits   0x000f74       data     extern C:\MCC18\v3_39\src\extended\proc\p18F46J50.asm
                  SSP2BUF   0x000f75       data     extern C:\MCC18\v3_39\src\extended\proc\p18F46J50.asm
                    T4CON   0x000f76       data     extern C:\MCC18\v3_39\src\extended\proc\p18F46J50.asm
                T4CONbits   0x000f76       data     extern C:\MCC18\v3_39\src\extended\proc\p18F46J50.asm
                      PR4   0x000f77       data     extern C:\MCC18\v3_39\src\extended\proc\p18F46J50.asm
                     TMR4   0x000f78       data     extern C:\MCC18\v3_39\src\extended\proc\p18F46J50.asm
                T3CONbits   0x000f79       data     extern C:\MCC18\v3_39\src\extended\proc\p18F46J50.asm
                    T3CON   0x000f79       data     extern C:\MCC18\v3_39\src\extended\proc\p18F46J50.asm
                    TMR3L   0x000f7a       data     extern C:\MCC18\v3_39\src\extended\proc\p18F46J50.asm
                    TMR3H   0x000f7b       data     extern C:\MCC18\v3_39\src\extended\proc\p18F46J50.asm
                 BAUDCON2   0x000f7c       data     extern C:\MCC18\v3_39\src\extended\proc\p18F46J50.asm
             BAUDCON2bits   0x000f7c       data     extern C:\MCC18\v3_39\src\extended\proc\p18F46J50.asm
                  SPBRGH2   0x000f7d       data     extern C:\MCC18\v3_39\src\extended\proc\p18F46J50.asm
                  BAUDCON   0x000f7e       data     extern C:\MCC18\v3_39\src\extended\proc\p18F46J50.asm
                 BAUDCON1   0x000f7e       data     extern C:\MCC18\v3_39\src\extended\proc\p18F46J50.asm
             BAUDCON1bits   0x000f7e       data     extern C:\MCC18\v3_39\src\extended\proc\p18F46J50.asm
              BAUDCONbits   0x000f7e       data     extern C:\MCC18\v3_39\src\extended\proc\p18F46J50.asm
                  BAUDCTL   0x000f7e       data     extern C:\MCC18\v3_39\src\extended\proc\p18F46J50.asm
              BAUDCTLbits   0x000f7e       data     extern C:\MCC18\v3_39\src\extended\proc\p18F46J50.asm
                  SPBRGH1   0x000f7f       data     extern C:\MCC18\v3_39\src\extended\proc\p18F46J50.asm
                   SPBRGH   0x000f7f       data     extern C:\MCC18\v3_39\src\extended\proc\p18F46J50.asm
                PORTAbits   0x000f80       data     extern C:\MCC18\v3_39\src\extended\proc\p18F46J50.asm
                    PORTA   0x000f80       data     extern C:\MCC18\v3_39\src\extended\proc\p18F46J50.asm
                PORTBbits   0x000f81       data     extern C:\MCC18\v3_39\src\extended\proc\p18F46J50.asm
                    PORTB   0x000f81       data     extern C:\MCC18\v3_39\src\extended\proc\p18F46J50.asm
                PORTCbits   0x000f82       data     extern C:\MCC18\v3_39\src\extended\proc\p18F46J50.asm
                    PORTC   0x000f82       data     extern C:\MCC18\v3_39\src\extended\proc\p18F46J50.asm
                PORTDbits   0x000f83       data     extern C:\MCC18\v3_39\src\extended\proc\p18F46J50.asm
                    PORTD   0x000f83       data     extern C:\MCC18\v3_39\src\extended\proc\p18F46J50.asm
                    PORTE   0x000f84       data     extern C:\MCC18\v3_39\src\extended\proc\p18F46J50.asm
                PORTEbits   0x000f84       data     extern C:\MCC18\v3_39\src\extended\proc\p18F46J50.asm
              HLVDCONbits   0x000f85       data     extern C:\MCC18\v3_39\src\extended\proc\p18F46J50.asm
                  HLVDCON   0x000f85       data     extern C:\MCC18\v3_39\src\extended\proc\p18F46J50.asm
              DMACON2bits   0x000f86       data     extern C:\MCC18\v3_39\src\extended\proc\p18F46J50.asm
                  DMACON2   0x000f86       data     extern C:\MCC18\v3_39\src\extended\proc\p18F46J50.asm
                  DMACON1   0x000f88       data     extern C:\MCC18\v3_39\src\extended\proc\p18F46J50.asm
              DMACON1bits   0x000f88       data     extern C:\MCC18\v3_39\src\extended\proc\p18F46J50.asm
                 LATAbits   0x000f89       data     extern C:\MCC18\v3_39\src\extended\proc\p18F46J50.asm
                     LATA   0x000f89       data     extern C:\MCC18\v3_39\src\extended\proc\p18F46J50.asm
                     LATB   0x000f8a       data     extern C:\MCC18\v3_39\src\extended\proc\p18F46J50.asm
                 LATBbits   0x000f8a       data     extern C:\MCC18\v3_39\src\extended\proc\p18F46J50.asm
                     LATC   0x000f8b       data     extern C:\MCC18\v3_39\src\extended\proc\p18F46J50.asm
                 LATCbits   0x000f8b       data     extern C:\MCC18\v3_39\src\extended\proc\p18F46J50.asm
                     LATD   0x000f8c       data     extern C:\MCC18\v3_39\src\extended\proc\p18F46J50.asm
                 LATDbits   0x000f8c       data     extern C:\MCC18\v3_39\src\extended\proc\p18F46J50.asm
                     LATE   0x000f8d       data     extern C:\MCC18\v3_39\src\extended\proc\p18F46J50.asm
                 LATEbits   0x000f8d       data     extern C:\MCC18\v3_39\src\extended\proc\p18F46J50.asm
                 ALRMVALL   0x000f8e       data     extern C:\MCC18\v3_39\src\extended\proc\p18F46J50.asm
                 ALRMVALH   0x000f8f       data     extern C:\MCC18\v3_39\src\extended\proc\p18F46J50.asm
              ALRMRPTbits   0x000f90       data     extern C:\MCC18\v3_39\src\extended\proc\p18F46J50.asm
                  ALRMRPT   0x000f90       data     extern C:\MCC18\v3_39\src\extended\proc\p18F46J50.asm
                  ALRMCFG   0x000f91       data     extern C:\MCC18\v3_39\src\extended\proc\p18F46J50.asm
              ALRMCFGbits   0x000f91       data     extern C:\MCC18\v3_39\src\extended\proc\p18F46J50.asm
                    TRISA   0x000f92       data     extern C:\MCC18\v3_39\src\extended\proc\p18F46J50.asm
                TRISAbits   0x000f92       data     extern C:\MCC18\v3_39\src\extended\proc\p18F46J50.asm
                    TRISB   0x000f93       data     extern C:\MCC18\v3_39\src\extended\proc\p18F46J50.asm
                TRISBbits   0x000f93       data     extern C:\MCC18\v3_39\src\extended\proc\p18F46J50.asm
                TRISCbits   0x000f94       data     extern C:\MCC18\v3_39\src\extended\proc\p18F46J50.asm
                    TRISC   0x000f94       data     extern C:\MCC18\v3_39\src\extended\proc\p18F46J50.asm
                    TRISD   0x000f95       data     extern C:\MCC18\v3_39\src\extended\proc\p18F46J50.asm
                TRISDbits   0x000f95       data     extern C:\MCC18\v3_39\src\extended\proc\p18F46J50.asm
                TRISEbits   0x000f96       data     extern C:\MCC18\v3_39\src\extended\proc\p18F46J50.asm
                    TRISE   0x000f96       data     extern C:\MCC18\v3_39\src\extended\proc\p18F46J50.asm
               T3GCONbits   0x000f97       data     extern C:\MCC18\v3_39\src\extended\proc\p18F46J50.asm
                   T3GCON   0x000f97       data     extern C:\MCC18\v3_39\src\extended\proc\p18F46J50.asm
                  RTCVALL   0x000f98       data     extern C:\MCC18\v3_39\src\extended\proc\p18F46J50.asm
                  RTCVALH   0x000f99       data     extern C:\MCC18\v3_39\src\extended\proc\p18F46J50.asm
                   T1GCON   0x000f9a       data     extern C:\MCC18\v3_39\src\extended\proc\p18F46J50.asm
               T1GCONbits   0x000f9a       data     extern C:\MCC18\v3_39\src\extended\proc\p18F46J50.asm
                  OSCTUNE   0x000f9b       data     extern C:\MCC18\v3_39\src\extended\proc\p18F46J50.asm
              OSCTUNEbits   0x000f9b       data     extern C:\MCC18\v3_39\src\extended\proc\p18F46J50.asm
               RCSTA2bits   0x000f9c       data     extern C:\MCC18\v3_39\src\extended\proc\p18F46J50.asm
                   RCSTA2   0x000f9c       data     extern C:\MCC18\v3_39\src\extended\proc\p18F46J50.asm
                     PIE1   0x000f9d       data     extern C:\MCC18\v3_39\src\extended\proc\p18F46J50.asm
                 PIE1bits   0x000f9d       data     extern C:\MCC18\v3_39\src\extended\proc\p18F46J50.asm
                 PIR1bits   0x000f9e       data     extern C:\MCC18\v3_39\src\extended\proc\p18F46J50.asm
                     PIR1   0x000f9e       data     extern C:\MCC18\v3_39\src\extended\proc\p18F46J50.asm
                     IPR1   0x000f9f       data     extern C:\MCC18\v3_39\src\extended\proc\p18F46J50.asm
                 IPR1bits   0x000f9f       data     extern C:\MCC18\v3_39\src\extended\proc\p18F46J50.asm
                     PIE2   0x000fa0       data     extern C:\MCC18\v3_39\src\extended\proc\p18F46J50.asm
                 PIE2bits   0x000fa0       data     extern C:\MCC18\v3_39\src\extended\proc\p18F46J50.asm
                 PIR2bits   0x000fa1       data     extern C:\MCC18\v3_39\src\extended\proc\p18F46J50.asm
                     PIR2   0x000fa1       data     extern C:\MCC18\v3_39\src\extended\proc\p18F46J50.asm
                 IPR2bits   0x000fa2       data     extern C:\MCC18\v3_39\src\extended\proc\p18F46J50.asm
                     IPR2   0x000fa2       data     extern C:\MCC18\v3_39\src\extended\proc\p18F46J50.asm
                     PIE3   0x000fa3       data     extern C:\MCC18\v3_39\src\extended\proc\p18F46J50.asm
                 PIE3bits   0x000fa3       data     extern C:\MCC18\v3_39\src\extended\proc\p18F46J50.asm
                     PIR3   0x000fa4       data     extern C:\MCC18\v3_39\src\extended\proc\p18F46J50.asm
                 PIR3bits   0x000fa4       data     extern C:\MCC18\v3_39\src\extended\proc\p18F46J50.asm
                 IPR3bits   0x000fa5       data     extern C:\MCC18\v3_39\src\extended\proc\p18F46J50.asm
                     IPR3   0x000fa5       data     extern C:\MCC18\v3_39\src\extended\proc\p18F46J50.asm
               EECON1bits   0x000fa6       data     extern C:\MCC18\v3_39\src\extended\proc\p18F46J50.asm
                   EECON1   0x000fa6       data     extern C:\MCC18\v3_39\src\extended\proc\p18F46J50.asm
                   EECON2   0x000fa7       data     extern C:\MCC18\v3_39\src\extended\proc\p18F46J50.asm
               TXSTA2bits   0x000fa8       data     extern C:\MCC18\v3_39\src\extended\proc\p18F46J50.asm
                   TXSTA2   0x000fa8       data     extern C:\MCC18\v3_39\src\extended\proc\p18F46J50.asm
                   TXREG2   0x000fa9       data     extern C:\MCC18\v3_39\src\extended\proc\p18F46J50.asm
                   RCREG2   0x000faa       data     extern C:\MCC18\v3_39\src\extended\proc\p18F46J50.asm
                   SPBRG2   0x000fab       data     extern C:\MCC18\v3_39\src\extended\proc\p18F46J50.asm
                RCSTAbits   0x000fac       data     extern C:\MCC18\v3_39\src\extended\proc\p18F46J50.asm
               RCSTA1bits   0x000fac       data     extern C:\MCC18\v3_39\src\extended\proc\p18F46J50.asm
                   RCSTA1   0x000fac       data     extern C:\MCC18\v3_39\src\extended\proc\p18F46J50.asm
                    RCSTA   0x000fac       data     extern C:\MCC18\v3_39\src\extended\proc\p18F46J50.asm
                    TXSTA   0x000fad       data     extern C:\MCC18\v3_39\src\extended\proc\p18F46J50.asm
                   TXSTA1   0x000fad       data     extern C:\MCC18\v3_39\src\extended\proc\p18F46J50.asm
               TXSTA1bits   0x000fad       data     extern C:\MCC18\v3_39\src\extended\proc\p18F46J50.asm
                TXSTAbits   0x000fad       data     extern C:\MCC18\v3_39\src\extended\proc\p18F46J50.asm
                    TXREG   0x000fae       data     extern C:\MCC18\v3_39\src\extended\proc\p18F46J50.asm
                   TXREG1   0x000fae       data     extern C:\MCC18\v3_39\src\extended\proc\p18F46J50.asm
                    RCREG   0x000faf       data     extern C:\MCC18\v3_39\src\extended\proc\p18F46J50.asm
                   RCREG1   0x000faf       data     extern C:\MCC18\v3_39\src\extended\proc\p18F46J50.asm
                   SPBRG1   0x000fb0       data     extern C:\MCC18\v3_39\src\extended\proc\p18F46J50.asm
                    SPBRG   0x000fb0       data     extern C:\MCC18\v3_39\src\extended\proc\p18F46J50.asm
                 CTMUICON   0x000fb1       data     extern C:\MCC18\v3_39\src\extended\proc\p18F46J50.asm
             CTMUICONbits   0x000fb1       data     extern C:\MCC18\v3_39\src\extended\proc\p18F46J50.asm
                 CTMUCONL   0x000fb2       data     extern C:\MCC18\v3_39\src\extended\proc\p18F46J50.asm
             CTMUCONLbits   0x000fb2       data     extern C:\MCC18\v3_39\src\extended\proc\p18F46J50.asm
             CTMUCONHbits   0x000fb3       data     extern C:\MCC18\v3_39\src\extended\proc\p18F46J50.asm
                 CTMUCONH   0x000fb3       data     extern C:\MCC18\v3_39\src\extended\proc\p18F46J50.asm
             ECCP2CONbits   0x000fb4       data     extern C:\MCC18\v3_39\src\extended\proc\p18F46J50.asm
                 ECCP2CON   0x000fb4       data     extern C:\MCC18\v3_39\src\extended\proc\p18F46J50.asm
              CCP2CONbits   0x000fb4       data     extern C:\MCC18\v3_39\src\extended\proc\p18F46J50.asm
                  CCP2CON   0x000fb4       data     extern C:\MCC18\v3_39\src\extended\proc\p18F46J50.asm
                   CCPR2L   0x000fb5       data     extern C:\MCC18\v3_39\src\extended\proc\p18F46J50.asm
                    CCPR2   0x000fb5       data     extern C:\MCC18\v3_39\src\extended\proc\p18F46J50.asm
                   CCPR2H   0x000fb6       data     extern C:\MCC18\v3_39\src\extended\proc\p18F46J50.asm
              PWM2CONbits   0x000fb7       data     extern C:\MCC18\v3_39\src\extended\proc\p18F46J50.asm
                  PWM2CON   0x000fb7       data     extern C:\MCC18\v3_39\src\extended\proc\p18F46J50.asm
                 ECCP2DEL   0x000fb7       data     extern C:\MCC18\v3_39\src\extended\proc\p18F46J50.asm
             ECCP2DELbits   0x000fb7       data     extern C:\MCC18\v3_39\src\extended\proc\p18F46J50.asm
              ECCP2ASbits   0x000fb8       data     extern C:\MCC18\v3_39\src\extended\proc\p18F46J50.asm
                  ECCP2AS   0x000fb8       data     extern C:\MCC18\v3_39\src\extended\proc\p18F46J50.asm
             PSTR2CONbits   0x000fb9       data     extern C:\MCC18\v3_39\src\extended\proc\p18F46J50.asm
                 PSTR2CON   0x000fb9       data     extern C:\MCC18\v3_39\src\extended\proc\p18F46J50.asm
              CCP1CONbits   0x000fba       data     extern C:\MCC18\v3_39\src\extended\proc\p18F46J50.asm
                  CCP1CON   0x000fba       data     extern C:\MCC18\v3_39\src\extended\proc\p18F46J50.asm
             ECCP1CONbits   0x000fba       data     extern C:\MCC18\v3_39\src\extended\proc\p18F46J50.asm
                 ECCP1CON   0x000fba       data     extern C:\MCC18\v3_39\src\extended\proc\p18F46J50.asm
                    CCPR1   0x000fbb       data     extern C:\MCC18\v3_39\src\extended\proc\p18F46J50.asm
                   CCPR1L   0x000fbb       data     extern C:\MCC18\v3_39\src\extended\proc\p18F46J50.asm
                   CCPR1H   0x000fbc       data     extern C:\MCC18\v3_39\src\extended\proc\p18F46J50.asm
                  PWM1CON   0x000fbd       data     extern C:\MCC18\v3_39\src\extended\proc\p18F46J50.asm
              PWM1CONbits   0x000fbd       data     extern C:\MCC18\v3_39\src\extended\proc\p18F46J50.asm
                 ECCP1DEL   0x000fbd       data     extern C:\MCC18\v3_39\src\extended\proc\p18F46J50.asm
             ECCP1DELbits   0x000fbd       data     extern C:\MCC18\v3_39\src\extended\proc\p18F46J50.asm
                  ECCP1AS   0x000fbe       data     extern C:\MCC18\v3_39\src\extended\proc\p18F46J50.asm
              ECCP1ASbits   0x000fbe       data     extern C:\MCC18\v3_39\src\extended\proc\p18F46J50.asm
                 PSTR1CON   0x000fbf       data     extern C:\MCC18\v3_39\src\extended\proc\p18F46J50.asm
             PSTR1CONbits   0x000fbf       data     extern C:\MCC18\v3_39\src\extended\proc\p18F46J50.asm
                   WDTCON   0x000fc0       data     extern C:\MCC18\v3_39\src\extended\proc\p18F46J50.asm
               WDTCONbits   0x000fc0       data     extern C:\MCC18\v3_39\src\extended\proc\p18F46J50.asm
                   ADCON1   0x000fc1       data     extern C:\MCC18\v3_39\src\extended\proc\p18F46J50.asm
               ADCON1bits   0x000fc1       data     extern C:\MCC18\v3_39\src\extended\proc\p18F46J50.asm
                   ADCON0   0x000fc2       data     extern C:\MCC18\v3_39\src\extended\proc\p18F46J50.asm
               ADCON0bits   0x000fc2       data     extern C:\MCC18\v3_39\src\extended\proc\p18F46J50.asm
                   ADRESL   0x000fc3       data     extern C:\MCC18\v3_39\src\extended\proc\p18F46J50.asm
                    ADRES   0x000fc3       data     extern C:\MCC18\v3_39\src\extended\proc\p18F46J50.asm
                   ADRESH   0x000fc4       data     extern C:\MCC18\v3_39\src\extended\proc\p18F46J50.asm
                  SSPCON2   0x000fc5       data     extern C:\MCC18\v3_39\src\extended\proc\p18F46J50.asm
              SSPCON2bits   0x000fc5       data     extern C:\MCC18\v3_39\src\extended\proc\p18F46J50.asm
             SSP1CON2bits   0x000fc5       data     extern C:\MCC18\v3_39\src\extended\proc\p18F46J50.asm
                 SSP1CON2   0x000fc5       data     extern C:\MCC18\v3_39\src\extended\proc\p18F46J50.asm
             SSP1CON1bits   0x000fc6       data     extern C:\MCC18\v3_39\src\extended\proc\p18F46J50.asm
                 SSP1CON1   0x000fc6       data     extern C:\MCC18\v3_39\src\extended\proc\p18F46J50.asm
              SSPCON1bits   0x000fc6       data     extern C:\MCC18\v3_39\src\extended\proc\p18F46J50.asm
                  SSPCON1   0x000fc6       data     extern C:\MCC18\v3_39\src\extended\proc\p18F46J50.asm
             SSP1STATbits   0x000fc7       data     extern C:\MCC18\v3_39\src\extended\proc\p18F46J50.asm
                 SSP1STAT   0x000fc7       data     extern C:\MCC18\v3_39\src\extended\proc\p18F46J50.asm
                  SSPSTAT   0x000fc7       data     extern C:\MCC18\v3_39\src\extended\proc\p18F46J50.asm
              SSPSTATbits   0x000fc7       data     extern C:\MCC18\v3_39\src\extended\proc\p18F46J50.asm
                   SSPADD   0x000fc8       data     extern C:\MCC18\v3_39\src\extended\proc\p18F46J50.asm
               SSPADDbits   0x000fc8       data     extern C:\MCC18\v3_39\src\extended\proc\p18F46J50.asm
                  SSP1ADD   0x000fc8       data     extern C:\MCC18\v3_39\src\extended\proc\p18F46J50.asm
              SSP1ADDbits   0x000fc8       data     extern C:\MCC18\v3_39\src\extended\proc\p18F46J50.asm
                   SSPBUF   0x000fc9       data     extern C:\MCC18\v3_39\src\extended\proc\p18F46J50.asm
                  SSP1BUF   0x000fc9       data     extern C:\MCC18\v3_39\src\extended\proc\p18F46J50.asm
                T2CONbits   0x000fca       data     extern C:\MCC18\v3_39\src\extended\proc\p18F46J50.asm
                    T2CON   0x000fca       data     extern C:\MCC18\v3_39\src\extended\proc\p18F46J50.asm
                      PR2   0x000fcb       data     extern C:\MCC18\v3_39\src\extended\proc\p18F46J50.asm
                     TMR2   0x000fcc       data     extern C:\MCC18\v3_39\src\extended\proc\p18F46J50.asm
                    T1CON   0x000fcd       data     extern C:\MCC18\v3_39\src\extended\proc\p18F46J50.asm
                T1CONbits   0x000fcd       data     extern C:\MCC18\v3_39\src\extended\proc\p18F46J50.asm
                    TMR1L   0x000fce       data     extern C:\MCC18\v3_39\src\extended\proc\p18F46J50.asm
                    TMR1H   0x000fcf       data     extern C:\MCC18\v3_39\src\extended\proc\p18F46J50.asm
                 RCONbits   0x000fd0       data     extern C:\MCC18\v3_39\src\extended\proc\p18F46J50.asm
                     RCON   0x000fd0       data     extern C:\MCC18\v3_39\src\extended\proc\p18F46J50.asm
                   CM2CON   0x000fd1       data     extern C:\MCC18\v3_39\src\extended\proc\p18F46J50.asm
                  CM2CON1   0x000fd1       data     extern C:\MCC18\v3_39\src\extended\proc\p18F46J50.asm
              CM2CON1bits   0x000fd1       data     extern C:\MCC18\v3_39\src\extended\proc\p18F46J50.asm
               CM2CONbits   0x000fd1       data     extern C:\MCC18\v3_39\src\extended\proc\p18F46J50.asm
               CM1CONbits   0x000fd2       data     extern C:\MCC18\v3_39\src\extended\proc\p18F46J50.asm
              CM1CON1bits   0x000fd2       data     extern C:\MCC18\v3_39\src\extended\proc\p18F46J50.asm
                  CM1CON1   0x000fd2       data     extern C:\MCC18\v3_39\src\extended\proc\p18F46J50.asm
                   CM1CON   0x000fd2       data     extern C:\MCC18\v3_39\src\extended\proc\p18F46J50.asm
               OSCCONbits   0x000fd3       data     extern C:\MCC18\v3_39\src\extended\proc\p18F46J50.asm
                   OSCCON   0x000fd3       data     extern C:\MCC18\v3_39\src\extended\proc\p18F46J50.asm
                    T0CON   0x000fd5       data     extern C:\MCC18\v3_39\src\extended\proc\p18F46J50.asm
                T0CONbits   0x000fd5       data     extern C:\MCC18\v3_39\src\extended\proc\p18F46J50.asm
                    TMR0L   0x000fd6       data     extern C:\MCC18\v3_39\src\extended\proc\p18F46J50.asm
                    TMR0H   0x000fd7       data     extern C:\MCC18\v3_39\src\extended\proc\p18F46J50.asm
               STATUSbits   0x000fd8       data     extern C:\MCC18\v3_39\src\extended\proc\p18F46J50.asm
                   STATUS   0x000fd8       data     extern C:\MCC18\v3_39\src\extended\proc\p18F46J50.asm
                    FSR2L   0x000fd9       data     extern C:\MCC18\v3_39\src\extended\proc\p18F46J50.asm
                     FSR2   0x000fd9       data     extern C:\MCC18\v3_39\src\extended\proc\p18F46J50.asm
                    FSR2H   0x000fda       data     extern C:\MCC18\v3_39\src\extended\proc\p18F46J50.asm
                   PLUSW2   0x000fdb       data     extern C:\MCC18\v3_39\src\extended\proc\p18F46J50.asm
                  PREINC2   0x000fdc       data     extern C:\MCC18\v3_39\src\extended\proc\p18F46J50.asm
                 POSTDEC2   0x000fdd       data     extern C:\MCC18\v3_39\src\extended\proc\p18F46J50.asm
                 POSTINC2   0x000fde       data     extern C:\MCC18\v3_39\src\extended\proc\p18F46J50.asm
                    INDF2   0x000fdf       data     extern C:\MCC18\v3_39\src\extended\proc\p18F46J50.asm
                      BSR   0x000fe0       data     extern C:\MCC18\v3_39\src\extended\proc\p18F46J50.asm
                    FSR1L   0x000fe1       data     extern C:\MCC18\v3_39\src\extended\proc\p18F46J50.asm
                     FSR1   0x000fe1       data     extern C:\MCC18\v3_39\src\extended\proc\p18F46J50.asm
                    FSR1H   0x000fe2       data     extern C:\MCC18\v3_39\src\extended\proc\p18F46J50.asm
                   PLUSW1   0x000fe3       data     extern C:\MCC18\v3_39\src\extended\proc\p18F46J50.asm
                  PREINC1   0x000fe4       data     extern C:\MCC18\v3_39\src\extended\proc\p18F46J50.asm
                 POSTDEC1   0x000fe5       data     extern C:\MCC18\v3_39\src\extended\proc\p18F46J50.asm
                 POSTINC1   0x000fe6       data     extern C:\MCC18\v3_39\src\extended\proc\p18F46J50.asm
                    INDF1   0x000fe7       data     extern C:\MCC18\v3_39\src\extended\proc\p18F46J50.asm
                     WREG   0x000fe8       data     extern C:\MCC18\v3_39\src\extended\proc\p18F46J50.asm
                     FSR0   0x000fe9       data     extern C:\MCC18\v3_39\src\extended\proc\p18F46J50.asm
                    FSR0L   0x000fe9       data     extern C:\MCC18\v3_39\src\extended\proc\p18F46J50.asm
                    FSR0H   0x000fea       data     extern C:\MCC18\v3_39\src\extended\proc\p18F46J50.asm
                   PLUSW0   0x000feb       data     extern C:\MCC18\v3_39\src\extended\proc\p18F46J50.asm
                  PREINC0   0x000fec       data     extern C:\MCC18\v3_39\src\extended\proc\p18F46J50.asm
                 POSTDEC0   0x000fed       data     extern C:\MCC18\v3_39\src\extended\proc\p18F46J50.asm
                 POSTINC0   0x000fee       data     extern C:\MCC18\v3_39\src\extended\proc\p18F46J50.asm
                    INDF0   0x000fef       data     extern C:\MCC18\v3_39\src\extended\proc\p18F46J50.asm
                  INTCON3   0x000ff0       data     extern C:\MCC18\v3_39\src\extended\proc\p18F46J50.asm
              INTCON3bits   0x000ff0       data     extern C:\MCC18\v3_39\src\extended\proc\p18F46J50.asm
                  INTCON2   0x000ff1       data     extern C:\MCC18\v3_39\src\extended\proc\p18F46J50.asm
              INTCON2bits   0x000ff1       data     extern C:\MCC18\v3_39\src\extended\proc\p18F46J50.asm
               INTCONbits   0x000ff2       data     extern C:\MCC18\v3_39\src\extended\proc\p18F46J50.asm
                   INTCON   0x000ff2       data     extern C:\MCC18\v3_39\src\extended\proc\p18F46J50.asm
                     PROD   0x000ff3       data     extern C:\MCC18\v3_39\src\extended\proc\p18F46J50.asm
                    PRODL   0x000ff3       data     extern C:\MCC18\v3_39\src\extended\proc\p18F46J50.asm
                    PRODH   0x000ff4       data     extern C:\MCC18\v3_39\src\extended\proc\p18F46J50.asm
                   TABLAT   0x000ff5       data     extern C:\MCC18\v3_39\src\extended\proc\p18F46J50.asm
                   TBLPTR   0x000ff6       data     extern C:\MCC18\v3_39\src\extended\proc\p18F46J50.asm
                  TBLPTRL   0x000ff6       data     extern C:\MCC18\v3_39\src\extended\proc\p18F46J50.asm
                  TBLPTRH   0x000ff7       data     extern C:\MCC18\v3_39\src\extended\proc\p18F46J50.asm
                  TBLPTRU   0x000ff8       data     extern C:\MCC18\v3_39\src\extended\proc\p18F46J50.asm
                       PC   0x000ff9       data     extern C:\MCC18\v3_39\src\extended\proc\p18F46J50.asm
                      PCL   0x000ff9       data     extern C:\MCC18\v3_39\src\extended\proc\p18F46J50.asm
                   PCLATH   0x000ffa       data     extern C:\MCC18\v3_39\src\extended\proc\p18F46J50.asm
                   PCLATU   0x000ffb       data     extern C:\MCC18\v3_39\src\extended\proc\p18F46J50.asm
                   STKPTR   0x000ffc       data     extern C:\MCC18\v3_39\src\extended\proc\p18F46J50.asm
               STKPTRbits   0x000ffc       data     extern C:\MCC18\v3_39\src\extended\proc\p18F46J50.asm
                      TOS   0x000ffd       data     extern C:\MCC18\v3_39\src\extended\proc\p18F46J50.asm
                     TOSL   0x000ffd       data     extern C:\MCC18\v3_39\src\extended\proc\p18F46J50.asm
                     TOSH   0x000ffe       data     extern C:\MCC18\v3_39\src\extended\proc\p18F46J50.asm
                     TOSU   0x000fff       data     extern C:\MCC18\v3_39\src\extended\proc\p18F46J50.asm


